
AllSense_v4.elf:     file format elf32-avr

Sections:
Idx Name          Size      VMA       LMA       File off  Algn
  0 .text         00001eb2  00000000  00000000  00000094  2**1
                  CONTENTS, ALLOC, LOAD, READONLY, CODE
  1 .data         00000016  00802000  00001eb2  00001f46  2**0
                  CONTENTS, ALLOC, LOAD, DATA
  2 .bss          00000040  00802016  00802016  00001f5c  2**0
                  ALLOC
  3 .comment      0000005c  00000000  00000000  00001f5c  2**0
                  CONTENTS, READONLY
  4 .note.gnu.avr.deviceinfo 00000040  00000000  00000000  00001fb8  2**2
                  CONTENTS, READONLY
  5 .debug_aranges 000000c8  00000000  00000000  00001ff8  2**0
                  CONTENTS, READONLY, DEBUGGING
  6 .debug_info   00003d0f  00000000  00000000  000020c0  2**0
                  CONTENTS, READONLY, DEBUGGING
  7 .debug_abbrev 00002a13  00000000  00000000  00005dcf  2**0
                  CONTENTS, READONLY, DEBUGGING
  8 .debug_line   00000c1a  00000000  00000000  000087e2  2**0
                  CONTENTS, READONLY, DEBUGGING
  9 .debug_frame  0000036c  00000000  00000000  000093fc  2**2
                  CONTENTS, READONLY, DEBUGGING
 10 .debug_str    00002626  00000000  00000000  00009768  2**0
                  CONTENTS, READONLY, DEBUGGING
 11 .debug_loc    00000c54  00000000  00000000  0000bd8e  2**0
                  CONTENTS, READONLY, DEBUGGING
 12 .debug_ranges 000000a8  00000000  00000000  0000c9e2  2**0
                  CONTENTS, READONLY, DEBUGGING

Disassembly of section .text:

00000000 <__vectors>:
       0:	0c 94 04 01 	jmp	0x208	; 0x208 <__ctors_end>
       4:	0c 94 21 01 	jmp	0x242	; 0x242 <__bad_interrupt>
       8:	0c 94 21 01 	jmp	0x242	; 0x242 <__bad_interrupt>
       c:	0c 94 21 01 	jmp	0x242	; 0x242 <__bad_interrupt>
      10:	0c 94 21 01 	jmp	0x242	; 0x242 <__bad_interrupt>
      14:	0c 94 21 01 	jmp	0x242	; 0x242 <__bad_interrupt>
      18:	0c 94 21 01 	jmp	0x242	; 0x242 <__bad_interrupt>
      1c:	0c 94 21 01 	jmp	0x242	; 0x242 <__bad_interrupt>
      20:	0c 94 21 01 	jmp	0x242	; 0x242 <__bad_interrupt>
      24:	0c 94 21 01 	jmp	0x242	; 0x242 <__bad_interrupt>
      28:	0c 94 21 01 	jmp	0x242	; 0x242 <__bad_interrupt>
      2c:	0c 94 21 01 	jmp	0x242	; 0x242 <__bad_interrupt>
      30:	0c 94 21 01 	jmp	0x242	; 0x242 <__bad_interrupt>
      34:	0c 94 21 01 	jmp	0x242	; 0x242 <__bad_interrupt>
      38:	0c 94 21 01 	jmp	0x242	; 0x242 <__bad_interrupt>
      3c:	0c 94 21 01 	jmp	0x242	; 0x242 <__bad_interrupt>
      40:	0c 94 21 01 	jmp	0x242	; 0x242 <__bad_interrupt>
      44:	0c 94 21 01 	jmp	0x242	; 0x242 <__bad_interrupt>
      48:	0c 94 21 01 	jmp	0x242	; 0x242 <__bad_interrupt>
      4c:	0c 94 21 01 	jmp	0x242	; 0x242 <__bad_interrupt>
      50:	0c 94 21 01 	jmp	0x242	; 0x242 <__bad_interrupt>
      54:	0c 94 21 01 	jmp	0x242	; 0x242 <__bad_interrupt>
      58:	0c 94 21 01 	jmp	0x242	; 0x242 <__bad_interrupt>
      5c:	0c 94 21 01 	jmp	0x242	; 0x242 <__bad_interrupt>
      60:	0c 94 21 01 	jmp	0x242	; 0x242 <__bad_interrupt>
      64:	0c 94 3d 02 	jmp	0x47a	; 0x47a <__vector_25>
      68:	0c 94 21 01 	jmp	0x242	; 0x242 <__bad_interrupt>
      6c:	0c 94 17 02 	jmp	0x42e	; 0x42e <__vector_27>
      70:	0c 94 21 01 	jmp	0x242	; 0x242 <__bad_interrupt>
      74:	0c 94 21 01 	jmp	0x242	; 0x242 <__bad_interrupt>
      78:	0c 94 21 01 	jmp	0x242	; 0x242 <__bad_interrupt>
      7c:	0c 94 21 01 	jmp	0x242	; 0x242 <__bad_interrupt>
      80:	0c 94 21 01 	jmp	0x242	; 0x242 <__bad_interrupt>
      84:	0c 94 21 01 	jmp	0x242	; 0x242 <__bad_interrupt>
      88:	0c 94 21 01 	jmp	0x242	; 0x242 <__bad_interrupt>
      8c:	0c 94 21 01 	jmp	0x242	; 0x242 <__bad_interrupt>
      90:	0c 94 21 01 	jmp	0x242	; 0x242 <__bad_interrupt>
      94:	0c 94 21 01 	jmp	0x242	; 0x242 <__bad_interrupt>
      98:	0c 94 21 01 	jmp	0x242	; 0x242 <__bad_interrupt>
      9c:	0c 94 21 01 	jmp	0x242	; 0x242 <__bad_interrupt>
      a0:	0c 94 21 01 	jmp	0x242	; 0x242 <__bad_interrupt>
      a4:	0c 94 21 01 	jmp	0x242	; 0x242 <__bad_interrupt>
      a8:	0c 94 21 01 	jmp	0x242	; 0x242 <__bad_interrupt>
      ac:	0c 94 21 01 	jmp	0x242	; 0x242 <__bad_interrupt>
      b0:	0c 94 21 01 	jmp	0x242	; 0x242 <__bad_interrupt>
      b4:	0c 94 21 01 	jmp	0x242	; 0x242 <__bad_interrupt>
      b8:	0c 94 21 01 	jmp	0x242	; 0x242 <__bad_interrupt>
      bc:	0c 94 21 01 	jmp	0x242	; 0x242 <__bad_interrupt>
      c0:	0c 94 21 01 	jmp	0x242	; 0x242 <__bad_interrupt>
      c4:	0c 94 21 01 	jmp	0x242	; 0x242 <__bad_interrupt>
      c8:	0c 94 21 01 	jmp	0x242	; 0x242 <__bad_interrupt>
      cc:	0c 94 21 01 	jmp	0x242	; 0x242 <__bad_interrupt>
      d0:	0c 94 21 01 	jmp	0x242	; 0x242 <__bad_interrupt>
      d4:	0c 94 21 01 	jmp	0x242	; 0x242 <__bad_interrupt>
      d8:	0c 94 21 01 	jmp	0x242	; 0x242 <__bad_interrupt>
      dc:	0c 94 21 01 	jmp	0x242	; 0x242 <__bad_interrupt>
      e0:	0c 94 21 01 	jmp	0x242	; 0x242 <__bad_interrupt>
      e4:	0c 94 21 01 	jmp	0x242	; 0x242 <__bad_interrupt>
      e8:	0c 94 f1 01 	jmp	0x3e2	; 0x3e2 <__vector_58>
      ec:	0c 94 21 01 	jmp	0x242	; 0x242 <__bad_interrupt>
      f0:	0c 94 cb 01 	jmp	0x396	; 0x396 <__vector_60>
      f4:	0c 94 21 01 	jmp	0x242	; 0x242 <__bad_interrupt>
      f8:	0c 94 21 01 	jmp	0x242	; 0x242 <__bad_interrupt>
      fc:	0c 94 21 01 	jmp	0x242	; 0x242 <__bad_interrupt>
     100:	0c 94 21 01 	jmp	0x242	; 0x242 <__bad_interrupt>
     104:	0c 94 21 01 	jmp	0x242	; 0x242 <__bad_interrupt>
     108:	0c 94 21 01 	jmp	0x242	; 0x242 <__bad_interrupt>
     10c:	0c 94 21 01 	jmp	0x242	; 0x242 <__bad_interrupt>
     110:	0c 94 21 01 	jmp	0x242	; 0x242 <__bad_interrupt>
     114:	0c 94 21 01 	jmp	0x242	; 0x242 <__bad_interrupt>
     118:	0c 94 21 01 	jmp	0x242	; 0x242 <__bad_interrupt>
     11c:	0c 94 21 01 	jmp	0x242	; 0x242 <__bad_interrupt>
     120:	0c 94 21 01 	jmp	0x242	; 0x242 <__bad_interrupt>
     124:	0c 94 21 01 	jmp	0x242	; 0x242 <__bad_interrupt>
     128:	0c 94 21 01 	jmp	0x242	; 0x242 <__bad_interrupt>
     12c:	0c 94 21 01 	jmp	0x242	; 0x242 <__bad_interrupt>
     130:	0c 94 21 01 	jmp	0x242	; 0x242 <__bad_interrupt>
     134:	0c 94 21 01 	jmp	0x242	; 0x242 <__bad_interrupt>
     138:	0c 94 21 01 	jmp	0x242	; 0x242 <__bad_interrupt>
     13c:	0c 94 21 01 	jmp	0x242	; 0x242 <__bad_interrupt>
     140:	0c 94 21 01 	jmp	0x242	; 0x242 <__bad_interrupt>
     144:	0c 94 21 01 	jmp	0x242	; 0x242 <__bad_interrupt>
     148:	0c 94 21 01 	jmp	0x242	; 0x242 <__bad_interrupt>
     14c:	0c 94 21 01 	jmp	0x242	; 0x242 <__bad_interrupt>
     150:	0c 94 21 01 	jmp	0x242	; 0x242 <__bad_interrupt>
     154:	0c 94 21 01 	jmp	0x242	; 0x242 <__bad_interrupt>
     158:	0c 94 21 01 	jmp	0x242	; 0x242 <__bad_interrupt>
     15c:	0c 94 21 01 	jmp	0x242	; 0x242 <__bad_interrupt>
     160:	0c 94 21 01 	jmp	0x242	; 0x242 <__bad_interrupt>
     164:	0c 94 21 01 	jmp	0x242	; 0x242 <__bad_interrupt>
     168:	0c 94 21 01 	jmp	0x242	; 0x242 <__bad_interrupt>
     16c:	0c 94 21 01 	jmp	0x242	; 0x242 <__bad_interrupt>
     170:	0c 94 21 01 	jmp	0x242	; 0x242 <__bad_interrupt>
     174:	0c 94 21 01 	jmp	0x242	; 0x242 <__bad_interrupt>
     178:	0c 94 21 01 	jmp	0x242	; 0x242 <__bad_interrupt>
     17c:	0c 94 21 01 	jmp	0x242	; 0x242 <__bad_interrupt>
     180:	0c 94 21 01 	jmp	0x242	; 0x242 <__bad_interrupt>
     184:	0c 94 21 01 	jmp	0x242	; 0x242 <__bad_interrupt>
     188:	0c 94 21 01 	jmp	0x242	; 0x242 <__bad_interrupt>
     18c:	0c 94 21 01 	jmp	0x242	; 0x242 <__bad_interrupt>
     190:	0c 94 21 01 	jmp	0x242	; 0x242 <__bad_interrupt>
     194:	0c 94 21 01 	jmp	0x242	; 0x242 <__bad_interrupt>
     198:	0c 94 21 01 	jmp	0x242	; 0x242 <__bad_interrupt>
     19c:	0c 94 21 01 	jmp	0x242	; 0x242 <__bad_interrupt>
     1a0:	0c 94 21 01 	jmp	0x242	; 0x242 <__bad_interrupt>
     1a4:	0c 94 21 01 	jmp	0x242	; 0x242 <__bad_interrupt>
     1a8:	0c 94 21 01 	jmp	0x242	; 0x242 <__bad_interrupt>
     1ac:	0c 94 21 01 	jmp	0x242	; 0x242 <__bad_interrupt>
     1b0:	0c 94 21 01 	jmp	0x242	; 0x242 <__bad_interrupt>
     1b4:	0c 94 21 01 	jmp	0x242	; 0x242 <__bad_interrupt>
     1b8:	0c 94 21 01 	jmp	0x242	; 0x242 <__bad_interrupt>
     1bc:	0c 94 21 01 	jmp	0x242	; 0x242 <__bad_interrupt>
     1c0:	0c 94 21 01 	jmp	0x242	; 0x242 <__bad_interrupt>
     1c4:	0c 94 21 01 	jmp	0x242	; 0x242 <__bad_interrupt>
     1c8:	0c 94 21 01 	jmp	0x242	; 0x242 <__bad_interrupt>
     1cc:	0c 94 21 01 	jmp	0x242	; 0x242 <__bad_interrupt>
     1d0:	0c 94 21 01 	jmp	0x242	; 0x242 <__bad_interrupt>
     1d4:	0c 94 21 01 	jmp	0x242	; 0x242 <__bad_interrupt>
     1d8:	0c 94 21 01 	jmp	0x242	; 0x242 <__bad_interrupt>
     1dc:	0c 94 21 01 	jmp	0x242	; 0x242 <__bad_interrupt>
     1e0:	0c 94 21 01 	jmp	0x242	; 0x242 <__bad_interrupt>
     1e4:	0c 94 21 01 	jmp	0x242	; 0x242 <__bad_interrupt>
     1e8:	0c 94 21 01 	jmp	0x242	; 0x242 <__bad_interrupt>
     1ec:	0c 94 21 01 	jmp	0x242	; 0x242 <__bad_interrupt>
     1f0:	0c 94 21 01 	jmp	0x242	; 0x242 <__bad_interrupt>
     1f4:	0c 94 21 01 	jmp	0x242	; 0x242 <__bad_interrupt>
     1f8:	0c 94 21 01 	jmp	0x242	; 0x242 <__bad_interrupt>

000001fc <__trampolines_end>:
     1fc:	63 64       	ori	r22, 0x43	; 67
     1fe:	69 6e       	ori	r22, 0xE9	; 233
     200:	6f 70       	andi	r22, 0x0F	; 15
     202:	73 75       	andi	r23, 0x53	; 83
     204:	78 58       	subi	r23, 0x88	; 136
     206:	5b 00       	.word	0x005b	; ????

00000208 <__ctors_end>:
     208:	11 24       	eor	r1, r1
     20a:	1f be       	out	0x3f, r1	; 63
     20c:	cf ef       	ldi	r28, 0xFF	; 255
     20e:	cd bf       	out	0x3d, r28	; 61
     210:	df e2       	ldi	r29, 0x2F	; 47
     212:	de bf       	out	0x3e, r29	; 62

00000214 <__do_copy_data>:
     214:	10 e2       	ldi	r17, 0x20	; 32
     216:	a0 e0       	ldi	r26, 0x00	; 0
     218:	b0 e2       	ldi	r27, 0x20	; 32
     21a:	e2 eb       	ldi	r30, 0xB2	; 178
     21c:	fe e1       	ldi	r31, 0x1E	; 30
     21e:	02 c0       	rjmp	.+4      	; 0x224 <__do_copy_data+0x10>
     220:	05 90       	lpm	r0, Z+
     222:	0d 92       	st	X+, r0
     224:	a6 31       	cpi	r26, 0x16	; 22
     226:	b1 07       	cpc	r27, r17
     228:	d9 f7       	brne	.-10     	; 0x220 <__do_copy_data+0xc>

0000022a <__do_clear_bss>:
     22a:	20 e2       	ldi	r18, 0x20	; 32
     22c:	a6 e1       	ldi	r26, 0x16	; 22
     22e:	b0 e2       	ldi	r27, 0x20	; 32
     230:	01 c0       	rjmp	.+2      	; 0x234 <.do_clear_bss_start>

00000232 <.do_clear_bss_loop>:
     232:	1d 92       	st	X+, r1

00000234 <.do_clear_bss_start>:
     234:	a6 35       	cpi	r26, 0x56	; 86
     236:	b2 07       	cpc	r27, r18
     238:	e1 f7       	brne	.-8      	; 0x232 <.do_clear_bss_loop>
     23a:	0e 94 52 01 	call	0x2a4	; 0x2a4 <main>
     23e:	0c 94 57 0f 	jmp	0x1eae	; 0x1eae <_exit>

00000242 <__bad_interrupt>:
     242:	0c 94 00 00 	jmp	0	; 0x0 <__vectors>

00000246 <system_clocks_init>:
void system_clocks_init(void)
{
	unsigned char n,s;

	// Save interrupts enabled/disabled state
	s=SREG;
     246:	9f b7       	in	r25, 0x3f	; 63
	// Disable interrupts
	asm("cli");
     248:	f8 94       	cli

	// External 7372.800 kHz oscillator initialization
	// Crystal oscillator increased drive current: Off
	// External Clock Source - Startup Time: 0.4-16 MHz Quartz Crystal - 16k CLK
	OSC.XOSCCTRL=OSC_FRQRANGE_2TO9_gc | OSC_XOSCSEL_XTAL_16KCLK_gc;
     24a:	e0 e5       	ldi	r30, 0x50	; 80
     24c:	f0 e0       	ldi	r31, 0x00	; 0
     24e:	8b e4       	ldi	r24, 0x4B	; 75
     250:	82 83       	std	Z+2, r24	; 0x02
	// Enable the external oscillator/clock source
	OSC.CTRL|=OSC_XOSCEN_bm;
     252:	80 81       	ld	r24, Z
     254:	88 60       	ori	r24, 0x08	; 8
     256:	80 83       	st	Z, r24
	// System Clock prescalers B & C division factors: B:1, C:1
	// ClkPer4: 7372.800 kHz
	// ClkPer2: 7372.800 kHz
	// ClkPer:  7372.800 kHz
	// ClkCPU:  7372.800 kHz
	n=(CLK.PSCTRL & (~(CLK_PSADIV_gm | CLK_PSBCDIV1_bm | CLK_PSBCDIV0_bm))) |
     258:	e0 e4       	ldi	r30, 0x40	; 64
     25a:	f0 e0       	ldi	r31, 0x00	; 0
     25c:	81 81       	ldd	r24, Z+1	; 0x01
     25e:	80 78       	andi	r24, 0x80	; 128
	CLK_PSADIV_1_gc | CLK_PSBCDIV_1_1_gc;
	CCP=CCP_IOREG_gc;
     260:	28 ed       	ldi	r18, 0xD8	; 216
     262:	24 bf       	out	0x34, r18	; 52
	CLK.PSCTRL=n;
     264:	81 83       	std	Z+1, r24	; 0x01

	// Wait for the external oscillator to stabilize
	while ((OSC.STATUS & OSC_XOSCRDY_bm)==0);
     266:	e0 e5       	ldi	r30, 0x50	; 80
     268:	f0 e0       	ldi	r31, 0x00	; 0
     26a:	81 81       	ldd	r24, Z+1	; 0x01
     26c:	83 ff       	sbrs	r24, 3
     26e:	fd cf       	rjmp	.-6      	; 0x26a <system_clocks_init+0x24>

	// Select the system clock source: External Oscillator or Clock
	n=(CLK.CTRL & (~CLK_SCLKSEL_gm)) | CLK_SCLKSEL_XOSC_gc;
     270:	e0 e4       	ldi	r30, 0x40	; 64
     272:	f0 e0       	ldi	r31, 0x00	; 0
     274:	80 81       	ld	r24, Z
     276:	88 7f       	andi	r24, 0xF8	; 248
     278:	83 60       	ori	r24, 0x03	; 3
	CCP=CCP_IOREG_gc;
     27a:	28 ed       	ldi	r18, 0xD8	; 216
     27c:	24 bf       	out	0x34, r18	; 52
	CLK.CTRL=n;
     27e:	80 83       	st	Z, r24

	// Disable the unused oscillators: 2 MHz, 32 MHz, internal 32 kHz, PLL
	OSC.CTRL&= ~(OSC_RC2MEN_bm | OSC_RC32MEN_bm | OSC_RC32KEN_bm | OSC_PLLEN_bm);
     280:	e0 e5       	ldi	r30, 0x50	; 80
     282:	f0 e0       	ldi	r31, 0x00	; 0
     284:	80 81       	ld	r24, Z
     286:	88 7e       	andi	r24, 0xE8	; 232
     288:	80 83       	st	Z, r24

	// ClkPer output disabled
	PORTCFG.CLKEVOUT&= ~(PORTCFG_CLKOUTSEL_gm | PORTCFG_CLKOUT_gm);
     28a:	e0 eb       	ldi	r30, 0xB0	; 176
     28c:	f0 e0       	ldi	r31, 0x00	; 0
     28e:	84 81       	ldd	r24, Z+4	; 0x04
     290:	80 7f       	andi	r24, 0xF0	; 240
     292:	84 83       	std	Z+4, r24	; 0x04
	// Restore interrupts enabled/disabled state
	SREG=s;
     294:	9f bf       	out	0x3f, r25	; 63
     296:	08 95       	ret

00000298 <gsm_init>:
}

void gsm_init() {
	PORTD.DIR = 0x03;
     298:	e0 e6       	ldi	r30, 0x60	; 96
     29a:	f6 e0       	ldi	r31, 0x06	; 6
     29c:	83 e0       	ldi	r24, 0x03	; 3
     29e:	80 83       	st	Z, r24
	PORTD.OUT = 0x03;
     2a0:	84 83       	std	Z+4, r24	; 0x04
     2a2:	08 95       	ret

000002a4 <main>:
{
	// Declare your local variables here
	unsigned char n;

	// Check the reset source
	n=RST.STATUS;
     2a4:	e8 e7       	ldi	r30, 0x78	; 120
     2a6:	f0 e0       	ldi	r31, 0x00	; 0
     2a8:	80 81       	ld	r24, Z
	{
		// Software reset

	}
	// Clear the reset flag
	RST.STATUS=n;
     2aa:	80 83       	st	Z, r24

	// Interrupt system initialization
	// Make sure the interrupts are disabled
	asm("cli");
     2ac:	f8 94       	cli
	// Low level interrupt: On
	// Round-robin scheduling for low level interrupt: On
	// Medium level interrupt: Off
	// High level interrupt: Off
	// The interrupt vectors will be placed at the start of the Application FLASH section
	n=(PMIC.CTRL & (~(PMIC_RREN_bm | PMIC_IVSEL_bm | PMIC_HILVLEN_bm | PMIC_MEDLVLEN_bm | PMIC_LOLVLEN_bm))) |
     2ae:	e0 ea       	ldi	r30, 0xA0	; 160
     2b0:	f0 e0       	ldi	r31, 0x00	; 0
     2b2:	82 81       	ldd	r24, Z+2	; 0x02
     2b4:	88 73       	andi	r24, 0x38	; 56
     2b6:	81 68       	ori	r24, 0x81	; 129
	PMIC_LOLVLEN_bm | PMIC_RREN_bm;
	CCP=CCP_IOREG_gc;
     2b8:	98 ed       	ldi	r25, 0xD8	; 216
     2ba:	94 bf       	out	0x34, r25	; 52
	PMIC.CTRL=n;
     2bc:	82 83       	std	Z+2, r24	; 0x02
	// Set the default priority for round-robin scheduling
	PMIC.INTPRI=0x00;
     2be:	11 82       	std	Z+1, r1	; 0x01

	// System clocks initialization
	system_clocks_init();
     2c0:	0e 94 23 01 	call	0x246	; 0x246 <system_clocks_init>
	
	// GSM initialization
	gsm_init();
     2c4:	0e 94 4c 01 	call	0x298	; 0x298 <gsm_init>
	
	serial_init(&debug, &USARTE0, &PORTE, (uint32_t) BAUD_L, (uint32_t) F_CPU);
     2c8:	0f 2e       	mov	r0, r31
     2ca:	f8 e1       	ldi	r31, 0x18	; 24
     2cc:	cf 2e       	mov	r12, r31
     2ce:	f5 e9       	ldi	r31, 0x95	; 149
     2d0:	df 2e       	mov	r13, r31
     2d2:	f0 e7       	ldi	r31, 0x70	; 112
     2d4:	ef 2e       	mov	r14, r31
     2d6:	f1 2c       	mov	r15, r1
     2d8:	f0 2d       	mov	r31, r0
     2da:	00 e0       	ldi	r16, 0x00	; 0
     2dc:	12 ec       	ldi	r17, 0xC2	; 194
     2de:	21 e0       	ldi	r18, 0x01	; 1
     2e0:	30 e0       	ldi	r19, 0x00	; 0
     2e2:	40 e8       	ldi	r20, 0x80	; 128
     2e4:	56 e0       	ldi	r21, 0x06	; 6
     2e6:	60 ea       	ldi	r22, 0xA0	; 160
     2e8:	7a e0       	ldi	r23, 0x0A	; 10
     2ea:	88 e1       	ldi	r24, 0x18	; 24
     2ec:	90 e2       	ldi	r25, 0x20	; 32
     2ee:	0e 94 27 08 	call	0x104e	; 0x104e <serial_init>
	serial_init(&gsm, &USARTC0, &PORTC, (uint32_t) BAUD_L, (uint32_t) F_CPU);
     2f2:	00 e0       	ldi	r16, 0x00	; 0
     2f4:	12 ec       	ldi	r17, 0xC2	; 194
     2f6:	21 e0       	ldi	r18, 0x01	; 1
     2f8:	30 e0       	ldi	r19, 0x00	; 0
     2fa:	40 e4       	ldi	r20, 0x40	; 64
     2fc:	56 e0       	ldi	r21, 0x06	; 6
     2fe:	60 ea       	ldi	r22, 0xA0	; 160
     300:	78 e0       	ldi	r23, 0x08	; 8
     302:	85 e3       	ldi	r24, 0x35	; 53
     304:	90 e2       	ldi	r25, 0x20	; 32
     306:	0e 94 27 08 	call	0x104e	; 0x104e <serial_init>
	serial_listen(&gsm);
     30a:	85 e3       	ldi	r24, 0x35	; 53
     30c:	90 e2       	ldi	r25, 0x20	; 32
     30e:	0e 94 93 07 	call	0xf26	; 0xf26 <serial_listen>

	// Globally enable interrupts
	asm("sei");
     312:	78 94       	sei
	// Sync baud rate
	do {
		serial_puts(&gsm, "AT\r");
		
		if (serial_available(&gsm)) {
			if (sscanf_P((char *) resp_buf, "\r\nOK\r\n")) {
     314:	ca e0       	ldi	r28, 0x0A	; 10
     316:	d0 e2       	ldi	r29, 0x20	; 32
	// Globally enable interrupts
	asm("sei");
	
	// Sync baud rate
	do {
		serial_puts(&gsm, "AT\r");
     318:	66 e0       	ldi	r22, 0x06	; 6
     31a:	70 e2       	ldi	r23, 0x20	; 32
     31c:	85 e3       	ldi	r24, 0x35	; 53
     31e:	90 e2       	ldi	r25, 0x20	; 32
     320:	0e 94 f0 07 	call	0xfe0	; 0xfe0 <serial_puts>
		
		if (serial_available(&gsm)) {
     324:	85 e3       	ldi	r24, 0x35	; 53
     326:	90 e2       	ldi	r25, 0x20	; 32
     328:	0e 94 a2 07 	call	0xf44	; 0xf44 <serial_available>
     32c:	88 23       	and	r24, r24
     32e:	89 f0       	breq	.+34     	; 0x352 <main+0xae>
			if (sscanf_P((char *) resp_buf, "\r\nOK\r\n")) {
     330:	df 93       	push	r29
     332:	cf 93       	push	r28
     334:	80 91 17 20 	lds	r24, 0x2017	; 0x802017 <__data_end+0x1>
     338:	8f 93       	push	r24
     33a:	80 91 16 20 	lds	r24, 0x2016	; 0x802016 <__data_end>
     33e:	8f 93       	push	r24
     340:	0e 94 f2 0b 	call	0x17e4	; 0x17e4 <sscanf_P>
     344:	0f 90       	pop	r0
     346:	0f 90       	pop	r0
     348:	0f 90       	pop	r0
     34a:	0f 90       	pop	r0
     34c:	89 2b       	or	r24, r25
     34e:	21 f3       	breq	.-56     	; 0x318 <main+0x74>
     350:	0b c0       	rjmp	.+22     	; 0x368 <main+0xc4>
				break;
			}
		} else {
			serial_gets(&gsm, resp_buf, &debug);
     352:	60 91 16 20 	lds	r22, 0x2016	; 0x802016 <__data_end>
     356:	70 91 17 20 	lds	r23, 0x2017	; 0x802017 <__data_end+0x1>
     35a:	48 e1       	ldi	r20, 0x18	; 24
     35c:	50 e2       	ldi	r21, 0x20	; 32
     35e:	85 e3       	ldi	r24, 0x35	; 53
     360:	90 e2       	ldi	r25, 0x20	; 32
     362:	0e 94 07 08 	call	0x100e	; 0x100e <serial_gets>
     366:	d8 cf       	rjmp	.-80     	; 0x318 <main+0x74>
		}
	} while(1);
	
	serial_puts(&gsm, "ATI\r");
     368:	61 e1       	ldi	r22, 0x11	; 17
     36a:	70 e2       	ldi	r23, 0x20	; 32
     36c:	85 e3       	ldi	r24, 0x35	; 53
     36e:	90 e2       	ldi	r25, 0x20	; 32
     370:	0e 94 f0 07 	call	0xfe0	; 0xfe0 <serial_puts>
	
	while (!serial_available(&gsm));
     374:	85 e3       	ldi	r24, 0x35	; 53
     376:	90 e2       	ldi	r25, 0x20	; 32
     378:	0e 94 a2 07 	call	0xf44	; 0xf44 <serial_available>
     37c:	88 23       	and	r24, r24
     37e:	d1 f3       	breq	.-12     	; 0x374 <main+0xd0>
	
	serial_gets(&gsm, resp_buf, &debug);
     380:	60 91 16 20 	lds	r22, 0x2016	; 0x802016 <__data_end>
     384:	70 91 17 20 	lds	r23, 0x2017	; 0x802017 <__data_end+0x1>
     388:	48 e1       	ldi	r20, 0x18	; 24
     38a:	50 e2       	ldi	r21, 0x20	; 32
     38c:	85 e3       	ldi	r24, 0x35	; 53
     38e:	90 e2       	ldi	r25, 0x20	; 32
     390:	0e 94 07 08 	call	0x100e	; 0x100e <serial_gets>
     394:	ff cf       	rjmp	.-2      	; 0x394 <main+0xf0>

00000396 <__vector_60>:

	while (1) {}
}

// USART 0 PORTE TX interrupt
ISR(USARTE0_TXC_vect) {
     396:	1f 92       	push	r1
     398:	0f 92       	push	r0
     39a:	0f b6       	in	r0, 0x3f	; 63
     39c:	0f 92       	push	r0
     39e:	11 24       	eor	r1, r1
     3a0:	2f 93       	push	r18
     3a2:	3f 93       	push	r19
     3a4:	4f 93       	push	r20
     3a6:	5f 93       	push	r21
     3a8:	6f 93       	push	r22
     3aa:	7f 93       	push	r23
     3ac:	8f 93       	push	r24
     3ae:	9f 93       	push	r25
     3b0:	af 93       	push	r26
     3b2:	bf 93       	push	r27
     3b4:	ef 93       	push	r30
     3b6:	ff 93       	push	r31
	serial_tx_isr_handler(&debug);
     3b8:	88 e1       	ldi	r24, 0x18	; 24
     3ba:	90 e2       	ldi	r25, 0x20	; 32
     3bc:	0e 94 7f 02 	call	0x4fe	; 0x4fe <serial_tx_isr_handler>
}
     3c0:	ff 91       	pop	r31
     3c2:	ef 91       	pop	r30
     3c4:	bf 91       	pop	r27
     3c6:	af 91       	pop	r26
     3c8:	9f 91       	pop	r25
     3ca:	8f 91       	pop	r24
     3cc:	7f 91       	pop	r23
     3ce:	6f 91       	pop	r22
     3d0:	5f 91       	pop	r21
     3d2:	4f 91       	pop	r20
     3d4:	3f 91       	pop	r19
     3d6:	2f 91       	pop	r18
     3d8:	0f 90       	pop	r0
     3da:	0f be       	out	0x3f, r0	; 63
     3dc:	0f 90       	pop	r0
     3de:	1f 90       	pop	r1
     3e0:	18 95       	reti

000003e2 <__vector_58>:

// USART 0 PORTE RX interrupt
ISR(USARTE0_RXC_vect) {
     3e2:	1f 92       	push	r1
     3e4:	0f 92       	push	r0
     3e6:	0f b6       	in	r0, 0x3f	; 63
     3e8:	0f 92       	push	r0
     3ea:	11 24       	eor	r1, r1
     3ec:	2f 93       	push	r18
     3ee:	3f 93       	push	r19
     3f0:	4f 93       	push	r20
     3f2:	5f 93       	push	r21
     3f4:	6f 93       	push	r22
     3f6:	7f 93       	push	r23
     3f8:	8f 93       	push	r24
     3fa:	9f 93       	push	r25
     3fc:	af 93       	push	r26
     3fe:	bf 93       	push	r27
     400:	ef 93       	push	r30
     402:	ff 93       	push	r31
	serial_rx_isr_handler(&debug);
     404:	88 e1       	ldi	r24, 0x18	; 24
     406:	90 e2       	ldi	r25, 0x20	; 32
     408:	0e 94 63 02 	call	0x4c6	; 0x4c6 <serial_rx_isr_handler>
}
     40c:	ff 91       	pop	r31
     40e:	ef 91       	pop	r30
     410:	bf 91       	pop	r27
     412:	af 91       	pop	r26
     414:	9f 91       	pop	r25
     416:	8f 91       	pop	r24
     418:	7f 91       	pop	r23
     41a:	6f 91       	pop	r22
     41c:	5f 91       	pop	r21
     41e:	4f 91       	pop	r20
     420:	3f 91       	pop	r19
     422:	2f 91       	pop	r18
     424:	0f 90       	pop	r0
     426:	0f be       	out	0x3f, r0	; 63
     428:	0f 90       	pop	r0
     42a:	1f 90       	pop	r1
     42c:	18 95       	reti

0000042e <__vector_27>:

// USART 0 PORTC TX interrupt
ISR(USARTC0_TXC_vect) {
     42e:	1f 92       	push	r1
     430:	0f 92       	push	r0
     432:	0f b6       	in	r0, 0x3f	; 63
     434:	0f 92       	push	r0
     436:	11 24       	eor	r1, r1
     438:	2f 93       	push	r18
     43a:	3f 93       	push	r19
     43c:	4f 93       	push	r20
     43e:	5f 93       	push	r21
     440:	6f 93       	push	r22
     442:	7f 93       	push	r23
     444:	8f 93       	push	r24
     446:	9f 93       	push	r25
     448:	af 93       	push	r26
     44a:	bf 93       	push	r27
     44c:	ef 93       	push	r30
     44e:	ff 93       	push	r31
	serial_tx_isr_handler(&gsm);
     450:	85 e3       	ldi	r24, 0x35	; 53
     452:	90 e2       	ldi	r25, 0x20	; 32
     454:	0e 94 7f 02 	call	0x4fe	; 0x4fe <serial_tx_isr_handler>
}
     458:	ff 91       	pop	r31
     45a:	ef 91       	pop	r30
     45c:	bf 91       	pop	r27
     45e:	af 91       	pop	r26
     460:	9f 91       	pop	r25
     462:	8f 91       	pop	r24
     464:	7f 91       	pop	r23
     466:	6f 91       	pop	r22
     468:	5f 91       	pop	r21
     46a:	4f 91       	pop	r20
     46c:	3f 91       	pop	r19
     46e:	2f 91       	pop	r18
     470:	0f 90       	pop	r0
     472:	0f be       	out	0x3f, r0	; 63
     474:	0f 90       	pop	r0
     476:	1f 90       	pop	r1
     478:	18 95       	reti

0000047a <__vector_25>:

// USART 0 PORTC RX interrupt
ISR(USARTC0_RXC_vect) {
     47a:	1f 92       	push	r1
     47c:	0f 92       	push	r0
     47e:	0f b6       	in	r0, 0x3f	; 63
     480:	0f 92       	push	r0
     482:	11 24       	eor	r1, r1
     484:	2f 93       	push	r18
     486:	3f 93       	push	r19
     488:	4f 93       	push	r20
     48a:	5f 93       	push	r21
     48c:	6f 93       	push	r22
     48e:	7f 93       	push	r23
     490:	8f 93       	push	r24
     492:	9f 93       	push	r25
     494:	af 93       	push	r26
     496:	bf 93       	push	r27
     498:	ef 93       	push	r30
     49a:	ff 93       	push	r31
	serial_rx_isr_handler(&gsm);
     49c:	85 e3       	ldi	r24, 0x35	; 53
     49e:	90 e2       	ldi	r25, 0x20	; 32
     4a0:	0e 94 63 02 	call	0x4c6	; 0x4c6 <serial_rx_isr_handler>
     4a4:	ff 91       	pop	r31
     4a6:	ef 91       	pop	r30
     4a8:	bf 91       	pop	r27
     4aa:	af 91       	pop	r26
     4ac:	9f 91       	pop	r25
     4ae:	8f 91       	pop	r24
     4b0:	7f 91       	pop	r23
     4b2:	6f 91       	pop	r22
     4b4:	5f 91       	pop	r21
     4b6:	4f 91       	pop	r20
     4b8:	3f 91       	pop	r19
     4ba:	2f 91       	pop	r18
     4bc:	0f 90       	pop	r0
     4be:	0f be       	out	0x3f, r0	; 63
     4c0:	0f 90       	pop	r0
     4c2:	1f 90       	pop	r1
     4c4:	18 95       	reti

000004c6 <serial_rx_isr_handler>:
	serial->_tx_en = tx_state;
	
	serial->_usart->CTRLB |= (uint8_t) tx_state;
	
	return OK;
}
     4c6:	fc 01       	movw	r30, r24
     4c8:	a0 81       	ld	r26, Z
     4ca:	b1 81       	ldd	r27, Z+1	; 0x01
     4cc:	11 96       	adiw	r26, 0x01	; 1
     4ce:	8c 91       	ld	r24, X
     4d0:	11 97       	sbiw	r26, 0x01	; 1
     4d2:	9c 91       	ld	r25, X
     4d4:	8c 71       	andi	r24, 0x1C	; 28
     4d6:	91 f4       	brne	.+36     	; 0x4fc <serial_rx_isr_handler+0x36>
     4d8:	a0 89       	ldd	r26, Z+16	; 0x10
     4da:	b1 89       	ldd	r27, Z+17	; 0x11
     4dc:	85 89       	ldd	r24, Z+21	; 0x15
     4de:	21 e0       	ldi	r18, 0x01	; 1
     4e0:	28 0f       	add	r18, r24
     4e2:	25 8b       	std	Z+21, r18	; 0x15
     4e4:	a8 0f       	add	r26, r24
     4e6:	b1 1d       	adc	r27, r1
     4e8:	9c 93       	st	X, r25
     4ea:	81 8d       	ldd	r24, Z+25	; 0x19
     4ec:	92 8d       	ldd	r25, Z+26	; 0x1a
     4ee:	01 96       	adiw	r24, 0x01	; 1
     4f0:	81 8f       	std	Z+25, r24	; 0x19
     4f2:	92 8f       	std	Z+26, r25	; 0x1a
     4f4:	89 2b       	or	r24, r25
     4f6:	11 f4       	brne	.+4      	; 0x4fc <serial_rx_isr_handler+0x36>
     4f8:	81 e0       	ldi	r24, 0x01	; 1
     4fa:	84 8b       	std	Z+20, r24	; 0x14
     4fc:	08 95       	ret

000004fe <serial_tx_isr_handler>:
     4fe:	fc 01       	movw	r30, r24
     500:	83 8d       	ldd	r24, Z+27	; 0x1b
     502:	94 8d       	ldd	r25, Z+28	; 0x1c
     504:	89 2b       	or	r24, r25
     506:	91 f0       	breq	.+36     	; 0x52c <serial_tx_isr_handler+0x2e>
     508:	83 8d       	ldd	r24, Z+27	; 0x1b
     50a:	94 8d       	ldd	r25, Z+28	; 0x1c
     50c:	01 97       	sbiw	r24, 0x01	; 1
     50e:	83 8f       	std	Z+27, r24	; 0x1b
     510:	94 8f       	std	Z+28, r25	; 0x1c
     512:	a0 81       	ld	r26, Z
     514:	b1 81       	ldd	r27, Z+1	; 0x01
     516:	82 89       	ldd	r24, Z+18	; 0x12
     518:	93 89       	ldd	r25, Z+19	; 0x13
     51a:	20 8d       	ldd	r18, Z+24	; 0x18
     51c:	31 e0       	ldi	r19, 0x01	; 1
     51e:	32 0f       	add	r19, r18
     520:	30 8f       	std	Z+24, r19	; 0x18
     522:	fc 01       	movw	r30, r24
     524:	e2 0f       	add	r30, r18
     526:	f1 1d       	adc	r31, r1
     528:	80 81       	ld	r24, Z
     52a:	8c 93       	st	X, r24
     52c:	08 95       	ret

0000052e <serial_set_baud>:
     52e:	2f 92       	push	r2
     530:	3f 92       	push	r3
     532:	4f 92       	push	r4
     534:	5f 92       	push	r5
     536:	6f 92       	push	r6
     538:	7f 92       	push	r7
     53a:	8f 92       	push	r8
     53c:	9f 92       	push	r9
     53e:	af 92       	push	r10
     540:	bf 92       	push	r11
     542:	cf 92       	push	r12
     544:	df 92       	push	r13
     546:	ef 92       	push	r14
     548:	ff 92       	push	r15
     54a:	0f 93       	push	r16
     54c:	1f 93       	push	r17
     54e:	cf 93       	push	r28
     550:	df 93       	push	r29
     552:	cd b7       	in	r28, 0x3d	; 61
     554:	de b7       	in	r29, 0x3e	; 62
     556:	2a 97       	sbiw	r28, 0x0a	; 10
     558:	cd bf       	out	0x3d, r28	; 61
     55a:	de bf       	out	0x3e, r29	; 62
     55c:	89 87       	std	Y+9, r24	; 0x09
     55e:	9a 87       	std	Y+10, r25	; 0x0a
     560:	1b 01       	movw	r2, r22
     562:	8a 01       	movw	r16, r20
     564:	fa 01       	movw	r30, r20
     566:	80 81       	ld	r24, Z
     568:	91 81       	ldd	r25, Z+1	; 0x01
     56a:	a2 81       	ldd	r26, Z+2	; 0x02
     56c:	b3 81       	ldd	r27, Z+3	; 0x03
     56e:	e9 85       	ldd	r30, Y+9	; 0x09
     570:	fa 85       	ldd	r31, Y+10	; 0x0a
     572:	84 83       	std	Z+4, r24	; 0x04
     574:	95 83       	std	Z+5, r25	; 0x05
     576:	a6 83       	std	Z+6, r26	; 0x06
     578:	b7 83       	std	Z+7, r27	; 0x07
     57a:	60 80       	ld	r6, Z
     57c:	71 80       	ldd	r7, Z+1	; 0x01
     57e:	fb 01       	movw	r30, r22
     580:	60 81       	ld	r22, Z
     582:	71 81       	ldd	r23, Z+1	; 0x01
     584:	82 81       	ldd	r24, Z+2	; 0x02
     586:	93 81       	ldd	r25, Z+3	; 0x03
     588:	0e 94 d6 09 	call	0x13ac	; 0x13ac <__floatunsisf>
     58c:	4b 01       	movw	r8, r22
     58e:	5c 01       	movw	r10, r24
     590:	f8 01       	movw	r30, r16
     592:	60 81       	ld	r22, Z
     594:	71 81       	ldd	r23, Z+1	; 0x01
     596:	82 81       	ldd	r24, Z+2	; 0x02
     598:	93 81       	ldd	r25, Z+3	; 0x03
     59a:	0e 94 d6 09 	call	0x13ac	; 0x13ac <__floatunsisf>
     59e:	69 83       	std	Y+1, r22	; 0x01
     5a0:	7a 83       	std	Y+2, r23	; 0x02
     5a2:	8b 83       	std	Y+3, r24	; 0x03
     5a4:	9c 83       	std	Y+4, r25	; 0x04
     5a6:	20 e0       	ldi	r18, 0x00	; 0
     5a8:	30 e0       	ldi	r19, 0x00	; 0
     5aa:	40 e8       	ldi	r20, 0x80	; 128
     5ac:	51 e4       	ldi	r21, 0x41	; 65
     5ae:	0e 94 64 0a 	call	0x14c8	; 0x14c8 <__mulsf3>
     5b2:	9b 01       	movw	r18, r22
     5b4:	ac 01       	movw	r20, r24
     5b6:	c5 01       	movw	r24, r10
     5b8:	b4 01       	movw	r22, r8
     5ba:	0e 94 2e 09 	call	0x125c	; 0x125c <__divsf3>
     5be:	6d 83       	std	Y+5, r22	; 0x05
     5c0:	7e 83       	std	Y+6, r23	; 0x06
     5c2:	8f 83       	std	Y+7, r24	; 0x07
     5c4:	98 87       	std	Y+8, r25	; 0x08
     5c6:	20 e0       	ldi	r18, 0x00	; 0
     5c8:	30 e0       	ldi	r19, 0x00	; 0
     5ca:	40 e8       	ldi	r20, 0x80	; 128
     5cc:	5f e3       	ldi	r21, 0x3F	; 63
     5ce:	0e 94 c1 08 	call	0x1182	; 0x1182 <__subsf3>
     5d2:	6b 01       	movw	r12, r22
     5d4:	7c 01       	movw	r14, r24
     5d6:	20 e0       	ldi	r18, 0x00	; 0
     5d8:	30 e0       	ldi	r19, 0x00	; 0
     5da:	40 e0       	ldi	r20, 0x00	; 0
     5dc:	53 e4       	ldi	r21, 0x43	; 67
     5de:	0e 94 64 0a 	call	0x14c8	; 0x14c8 <__mulsf3>
     5e2:	0e 94 a0 09 	call	0x1340	; 0x1340 <__fixsfsi>
     5e6:	61 15       	cp	r22, r1
     5e8:	70 41       	sbci	r23, 0x10	; 16
     5ea:	0c f4       	brge	.+2      	; 0x5ee <serial_set_baud+0xc0>
     5ec:	94 c0       	rjmp	.+296    	; 0x716 <serial_set_baud+0x1e8>
     5ee:	20 e0       	ldi	r18, 0x00	; 0
     5f0:	30 e0       	ldi	r19, 0x00	; 0
     5f2:	40 e8       	ldi	r20, 0x80	; 128
     5f4:	52 e4       	ldi	r21, 0x42	; 66
     5f6:	c7 01       	movw	r24, r14
     5f8:	b6 01       	movw	r22, r12
     5fa:	0e 94 64 0a 	call	0x14c8	; 0x14c8 <__mulsf3>
     5fe:	0e 94 a0 09 	call	0x1340	; 0x1340 <__fixsfsi>
     602:	61 15       	cp	r22, r1
     604:	70 41       	sbci	r23, 0x10	; 16
     606:	0c f4       	brge	.+2      	; 0x60a <serial_set_baud+0xdc>
     608:	8b c0       	rjmp	.+278    	; 0x720 <serial_set_baud+0x1f2>
     60a:	20 e0       	ldi	r18, 0x00	; 0
     60c:	30 e0       	ldi	r19, 0x00	; 0
     60e:	40 e0       	ldi	r20, 0x00	; 0
     610:	52 e4       	ldi	r21, 0x42	; 66
     612:	c7 01       	movw	r24, r14
     614:	b6 01       	movw	r22, r12
     616:	0e 94 64 0a 	call	0x14c8	; 0x14c8 <__mulsf3>
     61a:	0e 94 a0 09 	call	0x1340	; 0x1340 <__fixsfsi>
     61e:	61 15       	cp	r22, r1
     620:	70 41       	sbci	r23, 0x10	; 16
     622:	0c f4       	brge	.+2      	; 0x626 <serial_set_baud+0xf8>
     624:	0f c4       	rjmp	.+2078   	; 0xe44 <serial_set_baud+0x916>
     626:	20 e0       	ldi	r18, 0x00	; 0
     628:	30 e0       	ldi	r19, 0x00	; 0
     62a:	40 e8       	ldi	r20, 0x80	; 128
     62c:	51 e4       	ldi	r21, 0x41	; 65
     62e:	c7 01       	movw	r24, r14
     630:	b6 01       	movw	r22, r12
     632:	0e 94 64 0a 	call	0x14c8	; 0x14c8 <__mulsf3>
     636:	0e 94 a0 09 	call	0x1340	; 0x1340 <__fixsfsi>
     63a:	61 15       	cp	r22, r1
     63c:	70 41       	sbci	r23, 0x10	; 16
     63e:	0c f4       	brge	.+2      	; 0x642 <serial_set_baud+0x114>
     640:	01 c4       	rjmp	.+2050   	; 0xe44 <serial_set_baud+0x916>
     642:	20 e0       	ldi	r18, 0x00	; 0
     644:	30 e0       	ldi	r19, 0x00	; 0
     646:	40 e0       	ldi	r20, 0x00	; 0
     648:	51 e4       	ldi	r21, 0x41	; 65
     64a:	c7 01       	movw	r24, r14
     64c:	b6 01       	movw	r22, r12
     64e:	0e 94 64 0a 	call	0x14c8	; 0x14c8 <__mulsf3>
     652:	0e 94 a0 09 	call	0x1340	; 0x1340 <__fixsfsi>
     656:	61 15       	cp	r22, r1
     658:	70 41       	sbci	r23, 0x10	; 16
     65a:	0c f4       	brge	.+2      	; 0x65e <serial_set_baud+0x130>
     65c:	f3 c3       	rjmp	.+2022   	; 0xe44 <serial_set_baud+0x916>
     65e:	20 e0       	ldi	r18, 0x00	; 0
     660:	30 e0       	ldi	r19, 0x00	; 0
     662:	40 e8       	ldi	r20, 0x80	; 128
     664:	50 e4       	ldi	r21, 0x40	; 64
     666:	c7 01       	movw	r24, r14
     668:	b6 01       	movw	r22, r12
     66a:	0e 94 64 0a 	call	0x14c8	; 0x14c8 <__mulsf3>
     66e:	0e 94 a0 09 	call	0x1340	; 0x1340 <__fixsfsi>
     672:	61 15       	cp	r22, r1
     674:	70 41       	sbci	r23, 0x10	; 16
     676:	0c f4       	brge	.+2      	; 0x67a <serial_set_baud+0x14c>
     678:	e5 c3       	rjmp	.+1994   	; 0xe44 <serial_set_baud+0x916>
     67a:	a7 01       	movw	r20, r14
     67c:	96 01       	movw	r18, r12
     67e:	c7 01       	movw	r24, r14
     680:	b6 01       	movw	r22, r12
     682:	0e 94 c2 08 	call	0x1184	; 0x1184 <__addsf3>
     686:	0e 94 a0 09 	call	0x1340	; 0x1340 <__fixsfsi>
     68a:	61 15       	cp	r22, r1
     68c:	70 41       	sbci	r23, 0x10	; 16
     68e:	0c f4       	brge	.+2      	; 0x692 <serial_set_baud+0x164>
     690:	d9 c3       	rjmp	.+1970   	; 0xe44 <serial_set_baud+0x916>
     692:	6a c0       	rjmp	.+212    	; 0x768 <serial_set_baud+0x23a>
     694:	20 e0       	ldi	r18, 0x00	; 0
     696:	30 e0       	ldi	r19, 0x00	; 0
     698:	40 e8       	ldi	r20, 0x80	; 128
     69a:	51 e4       	ldi	r21, 0x41	; 65
     69c:	c7 01       	movw	r24, r14
     69e:	b6 01       	movw	r22, r12
     6a0:	0e 94 64 0a 	call	0x14c8	; 0x14c8 <__mulsf3>
     6a4:	0e 94 a0 09 	call	0x1340	; 0x1340 <__fixsfsi>
     6a8:	61 15       	cp	r22, r1
     6aa:	70 41       	sbci	r23, 0x10	; 16
     6ac:	f4 f1       	brlt	.+124    	; 0x72a <serial_set_baud+0x1fc>
     6ae:	20 e0       	ldi	r18, 0x00	; 0
     6b0:	30 e0       	ldi	r19, 0x00	; 0
     6b2:	40 e0       	ldi	r20, 0x00	; 0
     6b4:	51 e4       	ldi	r21, 0x41	; 65
     6b6:	c7 01       	movw	r24, r14
     6b8:	b6 01       	movw	r22, r12
     6ba:	0e 94 64 0a 	call	0x14c8	; 0x14c8 <__mulsf3>
     6be:	0e 94 a0 09 	call	0x1340	; 0x1340 <__fixsfsi>
     6c2:	61 15       	cp	r22, r1
     6c4:	70 41       	sbci	r23, 0x10	; 16
     6c6:	b4 f1       	brlt	.+108    	; 0x734 <serial_set_baud+0x206>
     6c8:	20 e0       	ldi	r18, 0x00	; 0
     6ca:	30 e0       	ldi	r19, 0x00	; 0
     6cc:	40 e8       	ldi	r20, 0x80	; 128
     6ce:	50 e4       	ldi	r21, 0x40	; 64
     6d0:	c7 01       	movw	r24, r14
     6d2:	b6 01       	movw	r22, r12
     6d4:	0e 94 64 0a 	call	0x14c8	; 0x14c8 <__mulsf3>
     6d8:	0e 94 a0 09 	call	0x1340	; 0x1340 <__fixsfsi>
     6dc:	61 15       	cp	r22, r1
     6de:	70 41       	sbci	r23, 0x10	; 16
     6e0:	74 f1       	brlt	.+92     	; 0x73e <serial_set_baud+0x210>
     6e2:	a7 01       	movw	r20, r14
     6e4:	96 01       	movw	r18, r12
     6e6:	c7 01       	movw	r24, r14
     6e8:	b6 01       	movw	r22, r12
     6ea:	0e 94 c2 08 	call	0x1184	; 0x1184 <__addsf3>
     6ee:	0e 94 a0 09 	call	0x1340	; 0x1340 <__fixsfsi>
     6f2:	61 15       	cp	r22, r1
     6f4:	70 41       	sbci	r23, 0x10	; 16
     6f6:	44 f1       	brlt	.+80     	; 0x748 <serial_set_baud+0x21a>
     6f8:	6d 81       	ldd	r22, Y+5	; 0x05
     6fa:	7e 81       	ldd	r23, Y+6	; 0x06
     6fc:	8f 81       	ldd	r24, Y+7	; 0x07
     6fe:	98 85       	ldd	r25, Y+8	; 0x08
     700:	0e 94 a0 09 	call	0x1340	; 0x1340 <__fixsfsi>
     704:	61 50       	subi	r22, 0x01	; 1
     706:	71 09       	sbc	r23, r1
     708:	61 15       	cp	r22, r1
     70a:	70 41       	sbci	r23, 0x10	; 16
     70c:	14 f1       	brlt	.+68     	; 0x752 <serial_set_baud+0x224>
     70e:	60 e0       	ldi	r22, 0x00	; 0
     710:	70 e0       	ldi	r23, 0x00	; 0
     712:	cb 01       	movw	r24, r22
     714:	22 c0       	rjmp	.+68     	; 0x75a <serial_set_baud+0x22c>
     716:	60 e0       	ldi	r22, 0x00	; 0
     718:	70 e0       	ldi	r23, 0x00	; 0
     71a:	80 e0       	ldi	r24, 0x00	; 0
     71c:	93 e4       	ldi	r25, 0x43	; 67
     71e:	1d c0       	rjmp	.+58     	; 0x75a <serial_set_baud+0x22c>
     720:	60 e0       	ldi	r22, 0x00	; 0
     722:	70 e0       	ldi	r23, 0x00	; 0
     724:	80 e8       	ldi	r24, 0x80	; 128
     726:	92 e4       	ldi	r25, 0x42	; 66
     728:	18 c0       	rjmp	.+48     	; 0x75a <serial_set_baud+0x22c>
     72a:	60 e0       	ldi	r22, 0x00	; 0
     72c:	70 e0       	ldi	r23, 0x00	; 0
     72e:	80 e8       	ldi	r24, 0x80	; 128
     730:	91 e4       	ldi	r25, 0x41	; 65
     732:	13 c0       	rjmp	.+38     	; 0x75a <serial_set_baud+0x22c>
     734:	60 e0       	ldi	r22, 0x00	; 0
     736:	70 e0       	ldi	r23, 0x00	; 0
     738:	80 e0       	ldi	r24, 0x00	; 0
     73a:	91 e4       	ldi	r25, 0x41	; 65
     73c:	0e c0       	rjmp	.+28     	; 0x75a <serial_set_baud+0x22c>
     73e:	60 e0       	ldi	r22, 0x00	; 0
     740:	70 e0       	ldi	r23, 0x00	; 0
     742:	80 e8       	ldi	r24, 0x80	; 128
     744:	90 e4       	ldi	r25, 0x40	; 64
     746:	09 c0       	rjmp	.+18     	; 0x75a <serial_set_baud+0x22c>
     748:	60 e0       	ldi	r22, 0x00	; 0
     74a:	70 e0       	ldi	r23, 0x00	; 0
     74c:	80 e0       	ldi	r24, 0x00	; 0
     74e:	90 e4       	ldi	r25, 0x40	; 64
     750:	04 c0       	rjmp	.+8      	; 0x75a <serial_set_baud+0x22c>
     752:	60 e0       	ldi	r22, 0x00	; 0
     754:	70 e0       	ldi	r23, 0x00	; 0
     756:	80 e8       	ldi	r24, 0x80	; 128
     758:	9f e3       	ldi	r25, 0x3F	; 63
     75a:	a7 01       	movw	r20, r14
     75c:	96 01       	movw	r18, r12
     75e:	0e 94 64 0a 	call	0x14c8	; 0x14c8 <__mulsf3>
     762:	0e 94 a0 09 	call	0x1340	; 0x1340 <__fixsfsi>
     766:	d0 c0       	rjmp	.+416    	; 0x908 <serial_set_baud+0x3da>
     768:	6d 81       	ldd	r22, Y+5	; 0x05
     76a:	7e 81       	ldd	r23, Y+6	; 0x06
     76c:	8f 81       	ldd	r24, Y+7	; 0x07
     76e:	98 85       	ldd	r25, Y+8	; 0x08
     770:	0e 94 a0 09 	call	0x1340	; 0x1340 <__fixsfsi>
     774:	61 50       	subi	r22, 0x01	; 1
     776:	71 09       	sbc	r23, r1
     778:	61 15       	cp	r22, r1
     77a:	70 41       	sbci	r23, 0x10	; 16
     77c:	0c f4       	brge	.+2      	; 0x780 <serial_set_baud+0x252>
     77e:	93 c0       	rjmp	.+294    	; 0x8a6 <serial_set_baud+0x378>
     780:	20 e0       	ldi	r18, 0x00	; 0
     782:	30 e0       	ldi	r19, 0x00	; 0
     784:	40 e0       	ldi	r20, 0x00	; 0
     786:	52 e4       	ldi	r21, 0x42	; 66
     788:	69 81       	ldd	r22, Y+1	; 0x01
     78a:	7a 81       	ldd	r23, Y+2	; 0x02
     78c:	8b 81       	ldd	r24, Y+3	; 0x03
     78e:	9c 81       	ldd	r25, Y+4	; 0x04
     790:	0e 94 64 0a 	call	0x14c8	; 0x14c8 <__mulsf3>
     794:	9b 01       	movw	r18, r22
     796:	ac 01       	movw	r20, r24
     798:	c5 01       	movw	r24, r10
     79a:	b4 01       	movw	r22, r8
     79c:	0e 94 2e 09 	call	0x125c	; 0x125c <__divsf3>
     7a0:	0e 94 a0 09 	call	0x1340	; 0x1340 <__fixsfsi>
     7a4:	61 50       	subi	r22, 0x01	; 1
     7a6:	71 09       	sbc	r23, r1
     7a8:	61 15       	cp	r22, r1
     7aa:	70 41       	sbci	r23, 0x10	; 16
     7ac:	0c f4       	brge	.+2      	; 0x7b0 <serial_set_baud+0x282>
     7ae:	80 c0       	rjmp	.+256    	; 0x8b0 <serial_set_baud+0x382>
     7b0:	20 e0       	ldi	r18, 0x00	; 0
     7b2:	30 e0       	ldi	r19, 0x00	; 0
     7b4:	40 e8       	ldi	r20, 0x80	; 128
     7b6:	52 e4       	ldi	r21, 0x42	; 66
     7b8:	69 81       	ldd	r22, Y+1	; 0x01
     7ba:	7a 81       	ldd	r23, Y+2	; 0x02
     7bc:	8b 81       	ldd	r24, Y+3	; 0x03
     7be:	9c 81       	ldd	r25, Y+4	; 0x04
     7c0:	0e 94 64 0a 	call	0x14c8	; 0x14c8 <__mulsf3>
     7c4:	9b 01       	movw	r18, r22
     7c6:	ac 01       	movw	r20, r24
     7c8:	c5 01       	movw	r24, r10
     7ca:	b4 01       	movw	r22, r8
     7cc:	0e 94 2e 09 	call	0x125c	; 0x125c <__divsf3>
     7d0:	0e 94 a0 09 	call	0x1340	; 0x1340 <__fixsfsi>
     7d4:	61 50       	subi	r22, 0x01	; 1
     7d6:	71 09       	sbc	r23, r1
     7d8:	61 15       	cp	r22, r1
     7da:	70 41       	sbci	r23, 0x10	; 16
     7dc:	0c f4       	brge	.+2      	; 0x7e0 <serial_set_baud+0x2b2>
     7de:	6d c0       	rjmp	.+218    	; 0x8ba <serial_set_baud+0x38c>
     7e0:	20 e0       	ldi	r18, 0x00	; 0
     7e2:	30 e0       	ldi	r19, 0x00	; 0
     7e4:	40 e0       	ldi	r20, 0x00	; 0
     7e6:	53 e4       	ldi	r21, 0x43	; 67
     7e8:	69 81       	ldd	r22, Y+1	; 0x01
     7ea:	7a 81       	ldd	r23, Y+2	; 0x02
     7ec:	8b 81       	ldd	r24, Y+3	; 0x03
     7ee:	9c 81       	ldd	r25, Y+4	; 0x04
     7f0:	0e 94 64 0a 	call	0x14c8	; 0x14c8 <__mulsf3>
     7f4:	9b 01       	movw	r18, r22
     7f6:	ac 01       	movw	r20, r24
     7f8:	c5 01       	movw	r24, r10
     7fa:	b4 01       	movw	r22, r8
     7fc:	0e 94 2e 09 	call	0x125c	; 0x125c <__divsf3>
     800:	0e 94 a0 09 	call	0x1340	; 0x1340 <__fixsfsi>
     804:	61 50       	subi	r22, 0x01	; 1
     806:	71 09       	sbc	r23, r1
     808:	61 15       	cp	r22, r1
     80a:	70 41       	sbci	r23, 0x10	; 16
     80c:	0c f4       	brge	.+2      	; 0x810 <serial_set_baud+0x2e2>
     80e:	5a c0       	rjmp	.+180    	; 0x8c4 <serial_set_baud+0x396>
     810:	20 e0       	ldi	r18, 0x00	; 0
     812:	30 e0       	ldi	r19, 0x00	; 0
     814:	40 e8       	ldi	r20, 0x80	; 128
     816:	53 e4       	ldi	r21, 0x43	; 67
     818:	69 81       	ldd	r22, Y+1	; 0x01
     81a:	7a 81       	ldd	r23, Y+2	; 0x02
     81c:	8b 81       	ldd	r24, Y+3	; 0x03
     81e:	9c 81       	ldd	r25, Y+4	; 0x04
     820:	0e 94 64 0a 	call	0x14c8	; 0x14c8 <__mulsf3>
     824:	9b 01       	movw	r18, r22
     826:	ac 01       	movw	r20, r24
     828:	c5 01       	movw	r24, r10
     82a:	b4 01       	movw	r22, r8
     82c:	0e 94 2e 09 	call	0x125c	; 0x125c <__divsf3>
     830:	0e 94 a0 09 	call	0x1340	; 0x1340 <__fixsfsi>
     834:	61 50       	subi	r22, 0x01	; 1
     836:	71 09       	sbc	r23, r1
     838:	61 15       	cp	r22, r1
     83a:	70 41       	sbci	r23, 0x10	; 16
     83c:	0c f4       	brge	.+2      	; 0x840 <serial_set_baud+0x312>
     83e:	47 c0       	rjmp	.+142    	; 0x8ce <serial_set_baud+0x3a0>
     840:	20 e0       	ldi	r18, 0x00	; 0
     842:	30 e0       	ldi	r19, 0x00	; 0
     844:	40 e0       	ldi	r20, 0x00	; 0
     846:	54 e4       	ldi	r21, 0x44	; 68
     848:	69 81       	ldd	r22, Y+1	; 0x01
     84a:	7a 81       	ldd	r23, Y+2	; 0x02
     84c:	8b 81       	ldd	r24, Y+3	; 0x03
     84e:	9c 81       	ldd	r25, Y+4	; 0x04
     850:	0e 94 64 0a 	call	0x14c8	; 0x14c8 <__mulsf3>
     854:	9b 01       	movw	r18, r22
     856:	ac 01       	movw	r20, r24
     858:	c5 01       	movw	r24, r10
     85a:	b4 01       	movw	r22, r8
     85c:	0e 94 2e 09 	call	0x125c	; 0x125c <__divsf3>
     860:	0e 94 a0 09 	call	0x1340	; 0x1340 <__fixsfsi>
     864:	61 50       	subi	r22, 0x01	; 1
     866:	71 09       	sbc	r23, r1
     868:	61 15       	cp	r22, r1
     86a:	70 41       	sbci	r23, 0x10	; 16
     86c:	ac f1       	brlt	.+106    	; 0x8d8 <serial_set_baud+0x3aa>
     86e:	20 e0       	ldi	r18, 0x00	; 0
     870:	30 e0       	ldi	r19, 0x00	; 0
     872:	40 e8       	ldi	r20, 0x80	; 128
     874:	54 e4       	ldi	r21, 0x44	; 68
     876:	69 81       	ldd	r22, Y+1	; 0x01
     878:	7a 81       	ldd	r23, Y+2	; 0x02
     87a:	8b 81       	ldd	r24, Y+3	; 0x03
     87c:	9c 81       	ldd	r25, Y+4	; 0x04
     87e:	0e 94 64 0a 	call	0x14c8	; 0x14c8 <__mulsf3>
     882:	9b 01       	movw	r18, r22
     884:	ac 01       	movw	r20, r24
     886:	c5 01       	movw	r24, r10
     888:	b4 01       	movw	r22, r8
     88a:	0e 94 2e 09 	call	0x125c	; 0x125c <__divsf3>
     88e:	0e 94 a0 09 	call	0x1340	; 0x1340 <__fixsfsi>
     892:	61 50       	subi	r22, 0x01	; 1
     894:	71 09       	sbc	r23, r1
     896:	61 15       	cp	r22, r1
     898:	70 41       	sbci	r23, 0x10	; 16
     89a:	1c f1       	brlt	.+70     	; 0x8e2 <serial_set_baud+0x3b4>
     89c:	60 e0       	ldi	r22, 0x00	; 0
     89e:	70 e0       	ldi	r23, 0x00	; 0
     8a0:	80 e0       	ldi	r24, 0x00	; 0
     8a2:	95 e4       	ldi	r25, 0x45	; 69
     8a4:	22 c0       	rjmp	.+68     	; 0x8ea <serial_set_baud+0x3bc>
     8a6:	60 e0       	ldi	r22, 0x00	; 0
     8a8:	70 e0       	ldi	r23, 0x00	; 0
     8aa:	80 e8       	ldi	r24, 0x80	; 128
     8ac:	91 e4       	ldi	r25, 0x41	; 65
     8ae:	1d c0       	rjmp	.+58     	; 0x8ea <serial_set_baud+0x3bc>
     8b0:	60 e0       	ldi	r22, 0x00	; 0
     8b2:	70 e0       	ldi	r23, 0x00	; 0
     8b4:	80 e0       	ldi	r24, 0x00	; 0
     8b6:	92 e4       	ldi	r25, 0x42	; 66
     8b8:	18 c0       	rjmp	.+48     	; 0x8ea <serial_set_baud+0x3bc>
     8ba:	60 e0       	ldi	r22, 0x00	; 0
     8bc:	70 e0       	ldi	r23, 0x00	; 0
     8be:	80 e8       	ldi	r24, 0x80	; 128
     8c0:	92 e4       	ldi	r25, 0x42	; 66
     8c2:	13 c0       	rjmp	.+38     	; 0x8ea <serial_set_baud+0x3bc>
     8c4:	60 e0       	ldi	r22, 0x00	; 0
     8c6:	70 e0       	ldi	r23, 0x00	; 0
     8c8:	80 e0       	ldi	r24, 0x00	; 0
     8ca:	93 e4       	ldi	r25, 0x43	; 67
     8cc:	0e c0       	rjmp	.+28     	; 0x8ea <serial_set_baud+0x3bc>
     8ce:	60 e0       	ldi	r22, 0x00	; 0
     8d0:	70 e0       	ldi	r23, 0x00	; 0
     8d2:	80 e8       	ldi	r24, 0x80	; 128
     8d4:	93 e4       	ldi	r25, 0x43	; 67
     8d6:	09 c0       	rjmp	.+18     	; 0x8ea <serial_set_baud+0x3bc>
     8d8:	60 e0       	ldi	r22, 0x00	; 0
     8da:	70 e0       	ldi	r23, 0x00	; 0
     8dc:	80 e0       	ldi	r24, 0x00	; 0
     8de:	94 e4       	ldi	r25, 0x44	; 68
     8e0:	04 c0       	rjmp	.+8      	; 0x8ea <serial_set_baud+0x3bc>
     8e2:	60 e0       	ldi	r22, 0x00	; 0
     8e4:	70 e0       	ldi	r23, 0x00	; 0
     8e6:	80 e8       	ldi	r24, 0x80	; 128
     8e8:	94 e4       	ldi	r25, 0x44	; 68
     8ea:	29 81       	ldd	r18, Y+1	; 0x01
     8ec:	3a 81       	ldd	r19, Y+2	; 0x02
     8ee:	4b 81       	ldd	r20, Y+3	; 0x03
     8f0:	5c 81       	ldd	r21, Y+4	; 0x04
     8f2:	0e 94 64 0a 	call	0x14c8	; 0x14c8 <__mulsf3>
     8f6:	9b 01       	movw	r18, r22
     8f8:	ac 01       	movw	r20, r24
     8fa:	c5 01       	movw	r24, r10
     8fc:	b4 01       	movw	r22, r8
     8fe:	0e 94 2e 09 	call	0x125c	; 0x125c <__divsf3>
     902:	0e 94 a0 09 	call	0x1340	; 0x1340 <__fixsfsi>
     906:	61 50       	subi	r22, 0x01	; 1
     908:	f3 01       	movw	r30, r6
     90a:	66 83       	std	Z+6, r22	; 0x06
     90c:	e9 85       	ldd	r30, Y+9	; 0x09
     90e:	fa 85       	ldd	r31, Y+10	; 0x0a
     910:	01 90       	ld	r0, Z+
     912:	f0 81       	ld	r31, Z
     914:	e0 2d       	mov	r30, r0
     916:	ed 83       	std	Y+5, r30	; 0x05
     918:	fe 83       	std	Y+6, r31	; 0x06
     91a:	f1 01       	movw	r30, r2
     91c:	60 81       	ld	r22, Z
     91e:	71 81       	ldd	r23, Z+1	; 0x01
     920:	82 81       	ldd	r24, Z+2	; 0x02
     922:	93 81       	ldd	r25, Z+3	; 0x03
     924:	0e 94 d6 09 	call	0x13ac	; 0x13ac <__floatunsisf>
     928:	2b 01       	movw	r4, r22
     92a:	3c 01       	movw	r6, r24
     92c:	f8 01       	movw	r30, r16
     92e:	60 81       	ld	r22, Z
     930:	71 81       	ldd	r23, Z+1	; 0x01
     932:	82 81       	ldd	r24, Z+2	; 0x02
     934:	93 81       	ldd	r25, Z+3	; 0x03
     936:	0e 94 d6 09 	call	0x13ac	; 0x13ac <__floatunsisf>
     93a:	69 83       	std	Y+1, r22	; 0x01
     93c:	7a 83       	std	Y+2, r23	; 0x02
     93e:	8b 83       	std	Y+3, r24	; 0x03
     940:	9c 83       	std	Y+4, r25	; 0x04
     942:	20 e0       	ldi	r18, 0x00	; 0
     944:	30 e0       	ldi	r19, 0x00	; 0
     946:	40 e8       	ldi	r20, 0x80	; 128
     948:	51 e4       	ldi	r21, 0x41	; 65
     94a:	0e 94 64 0a 	call	0x14c8	; 0x14c8 <__mulsf3>
     94e:	9b 01       	movw	r18, r22
     950:	ac 01       	movw	r20, r24
     952:	c3 01       	movw	r24, r6
     954:	b2 01       	movw	r22, r4
     956:	0e 94 2e 09 	call	0x125c	; 0x125c <__divsf3>
     95a:	4b 01       	movw	r8, r22
     95c:	5c 01       	movw	r10, r24
     95e:	20 e0       	ldi	r18, 0x00	; 0
     960:	30 e0       	ldi	r19, 0x00	; 0
     962:	40 e8       	ldi	r20, 0x80	; 128
     964:	5f e3       	ldi	r21, 0x3F	; 63
     966:	0e 94 c1 08 	call	0x1182	; 0x1182 <__subsf3>
     96a:	6b 01       	movw	r12, r22
     96c:	7c 01       	movw	r14, r24
     96e:	20 e0       	ldi	r18, 0x00	; 0
     970:	30 e0       	ldi	r19, 0x00	; 0
     972:	40 e0       	ldi	r20, 0x00	; 0
     974:	53 e4       	ldi	r21, 0x43	; 67
     976:	0e 94 64 0a 	call	0x14c8	; 0x14c8 <__mulsf3>
     97a:	0e 94 a0 09 	call	0x1340	; 0x1340 <__fixsfsi>
     97e:	61 15       	cp	r22, r1
     980:	70 41       	sbci	r23, 0x10	; 16
     982:	0c f4       	brge	.+2      	; 0x986 <serial_set_baud+0x458>
     984:	64 c1       	rjmp	.+712    	; 0xc4e <serial_set_baud+0x720>
     986:	20 e0       	ldi	r18, 0x00	; 0
     988:	30 e0       	ldi	r19, 0x00	; 0
     98a:	40 e8       	ldi	r20, 0x80	; 128
     98c:	52 e4       	ldi	r21, 0x42	; 66
     98e:	c7 01       	movw	r24, r14
     990:	b6 01       	movw	r22, r12
     992:	0e 94 64 0a 	call	0x14c8	; 0x14c8 <__mulsf3>
     996:	0e 94 a0 09 	call	0x1340	; 0x1340 <__fixsfsi>
     99a:	61 15       	cp	r22, r1
     99c:	70 41       	sbci	r23, 0x10	; 16
     99e:	0c f4       	brge	.+2      	; 0x9a2 <serial_set_baud+0x474>
     9a0:	5c c1       	rjmp	.+696    	; 0xc5a <serial_set_baud+0x72c>
     9a2:	20 e0       	ldi	r18, 0x00	; 0
     9a4:	30 e0       	ldi	r19, 0x00	; 0
     9a6:	40 e0       	ldi	r20, 0x00	; 0
     9a8:	52 e4       	ldi	r21, 0x42	; 66
     9aa:	c7 01       	movw	r24, r14
     9ac:	b6 01       	movw	r22, r12
     9ae:	0e 94 64 0a 	call	0x14c8	; 0x14c8 <__mulsf3>
     9b2:	0e 94 a0 09 	call	0x1340	; 0x1340 <__fixsfsi>
     9b6:	61 15       	cp	r22, r1
     9b8:	70 41       	sbci	r23, 0x10	; 16
     9ba:	0c f4       	brge	.+2      	; 0x9be <serial_set_baud+0x490>
     9bc:	69 c2       	rjmp	.+1234   	; 0xe90 <serial_set_baud+0x962>
     9be:	20 e0       	ldi	r18, 0x00	; 0
     9c0:	30 e0       	ldi	r19, 0x00	; 0
     9c2:	40 e8       	ldi	r20, 0x80	; 128
     9c4:	51 e4       	ldi	r21, 0x41	; 65
     9c6:	c7 01       	movw	r24, r14
     9c8:	b6 01       	movw	r22, r12
     9ca:	0e 94 64 0a 	call	0x14c8	; 0x14c8 <__mulsf3>
     9ce:	0e 94 a0 09 	call	0x1340	; 0x1340 <__fixsfsi>
     9d2:	61 15       	cp	r22, r1
     9d4:	70 41       	sbci	r23, 0x10	; 16
     9d6:	0c f4       	brge	.+2      	; 0x9da <serial_set_baud+0x4ac>
     9d8:	5d c2       	rjmp	.+1210   	; 0xe94 <serial_set_baud+0x966>
     9da:	20 e0       	ldi	r18, 0x00	; 0
     9dc:	30 e0       	ldi	r19, 0x00	; 0
     9de:	40 e0       	ldi	r20, 0x00	; 0
     9e0:	51 e4       	ldi	r21, 0x41	; 65
     9e2:	c7 01       	movw	r24, r14
     9e4:	b6 01       	movw	r22, r12
     9e6:	0e 94 64 0a 	call	0x14c8	; 0x14c8 <__mulsf3>
     9ea:	0e 94 a0 09 	call	0x1340	; 0x1340 <__fixsfsi>
     9ee:	61 15       	cp	r22, r1
     9f0:	70 41       	sbci	r23, 0x10	; 16
     9f2:	0c f4       	brge	.+2      	; 0x9f6 <serial_set_baud+0x4c8>
     9f4:	51 c2       	rjmp	.+1186   	; 0xe98 <serial_set_baud+0x96a>
     9f6:	20 e0       	ldi	r18, 0x00	; 0
     9f8:	30 e0       	ldi	r19, 0x00	; 0
     9fa:	40 e8       	ldi	r20, 0x80	; 128
     9fc:	50 e4       	ldi	r21, 0x40	; 64
     9fe:	c7 01       	movw	r24, r14
     a00:	b6 01       	movw	r22, r12
     a02:	0e 94 64 0a 	call	0x14c8	; 0x14c8 <__mulsf3>
     a06:	0e 94 a0 09 	call	0x1340	; 0x1340 <__fixsfsi>
     a0a:	61 15       	cp	r22, r1
     a0c:	70 41       	sbci	r23, 0x10	; 16
     a0e:	0c f4       	brge	.+2      	; 0xa12 <serial_set_baud+0x4e4>
     a10:	45 c2       	rjmp	.+1162   	; 0xe9c <serial_set_baud+0x96e>
     a12:	a7 01       	movw	r20, r14
     a14:	96 01       	movw	r18, r12
     a16:	c7 01       	movw	r24, r14
     a18:	b6 01       	movw	r22, r12
     a1a:	0e 94 c2 08 	call	0x1184	; 0x1184 <__addsf3>
     a1e:	0e 94 a0 09 	call	0x1340	; 0x1340 <__fixsfsi>
     a22:	61 15       	cp	r22, r1
     a24:	70 41       	sbci	r23, 0x10	; 16
     a26:	0c f4       	brge	.+2      	; 0xa2a <serial_set_baud+0x4fc>
     a28:	3b c2       	rjmp	.+1142   	; 0xea0 <serial_set_baud+0x972>
     a2a:	c5 01       	movw	r24, r10
     a2c:	b4 01       	movw	r22, r8
     a2e:	0e 94 a0 09 	call	0x1340	; 0x1340 <__fixsfsi>
     a32:	61 50       	subi	r22, 0x01	; 1
     a34:	71 09       	sbc	r23, r1
     a36:	61 15       	cp	r22, r1
     a38:	70 41       	sbci	r23, 0x10	; 16
     a3a:	0c f4       	brge	.+2      	; 0xa3e <serial_set_baud+0x510>
     a3c:	33 c2       	rjmp	.+1126   	; 0xea4 <serial_set_baud+0x976>
     a3e:	20 e0       	ldi	r18, 0x00	; 0
     a40:	30 e0       	ldi	r19, 0x00	; 0
     a42:	40 e0       	ldi	r20, 0x00	; 0
     a44:	52 e4       	ldi	r21, 0x42	; 66
     a46:	69 81       	ldd	r22, Y+1	; 0x01
     a48:	7a 81       	ldd	r23, Y+2	; 0x02
     a4a:	8b 81       	ldd	r24, Y+3	; 0x03
     a4c:	9c 81       	ldd	r25, Y+4	; 0x04
     a4e:	0e 94 64 0a 	call	0x14c8	; 0x14c8 <__mulsf3>
     a52:	9b 01       	movw	r18, r22
     a54:	ac 01       	movw	r20, r24
     a56:	c3 01       	movw	r24, r6
     a58:	b2 01       	movw	r22, r4
     a5a:	0e 94 2e 09 	call	0x125c	; 0x125c <__divsf3>
     a5e:	0e 94 a0 09 	call	0x1340	; 0x1340 <__fixsfsi>
     a62:	61 50       	subi	r22, 0x01	; 1
     a64:	71 09       	sbc	r23, r1
     a66:	61 15       	cp	r22, r1
     a68:	70 41       	sbci	r23, 0x10	; 16
     a6a:	0c f4       	brge	.+2      	; 0xa6e <serial_set_baud+0x540>
     a6c:	1d c2       	rjmp	.+1082   	; 0xea8 <serial_set_baud+0x97a>
     a6e:	20 e0       	ldi	r18, 0x00	; 0
     a70:	30 e0       	ldi	r19, 0x00	; 0
     a72:	40 e8       	ldi	r20, 0x80	; 128
     a74:	52 e4       	ldi	r21, 0x42	; 66
     a76:	69 81       	ldd	r22, Y+1	; 0x01
     a78:	7a 81       	ldd	r23, Y+2	; 0x02
     a7a:	8b 81       	ldd	r24, Y+3	; 0x03
     a7c:	9c 81       	ldd	r25, Y+4	; 0x04
     a7e:	0e 94 64 0a 	call	0x14c8	; 0x14c8 <__mulsf3>
     a82:	9b 01       	movw	r18, r22
     a84:	ac 01       	movw	r20, r24
     a86:	c3 01       	movw	r24, r6
     a88:	b2 01       	movw	r22, r4
     a8a:	0e 94 2e 09 	call	0x125c	; 0x125c <__divsf3>
     a8e:	0e 94 a0 09 	call	0x1340	; 0x1340 <__fixsfsi>
     a92:	61 50       	subi	r22, 0x01	; 1
     a94:	71 09       	sbc	r23, r1
     a96:	61 15       	cp	r22, r1
     a98:	70 41       	sbci	r23, 0x10	; 16
     a9a:	0c f4       	brge	.+2      	; 0xa9e <serial_set_baud+0x570>
     a9c:	07 c2       	rjmp	.+1038   	; 0xeac <serial_set_baud+0x97e>
     a9e:	20 e0       	ldi	r18, 0x00	; 0
     aa0:	30 e0       	ldi	r19, 0x00	; 0
     aa2:	40 e0       	ldi	r20, 0x00	; 0
     aa4:	53 e4       	ldi	r21, 0x43	; 67
     aa6:	69 81       	ldd	r22, Y+1	; 0x01
     aa8:	7a 81       	ldd	r23, Y+2	; 0x02
     aaa:	8b 81       	ldd	r24, Y+3	; 0x03
     aac:	9c 81       	ldd	r25, Y+4	; 0x04
     aae:	0e 94 64 0a 	call	0x14c8	; 0x14c8 <__mulsf3>
     ab2:	9b 01       	movw	r18, r22
     ab4:	ac 01       	movw	r20, r24
     ab6:	c3 01       	movw	r24, r6
     ab8:	b2 01       	movw	r22, r4
     aba:	0e 94 2e 09 	call	0x125c	; 0x125c <__divsf3>
     abe:	0e 94 a0 09 	call	0x1340	; 0x1340 <__fixsfsi>
     ac2:	61 50       	subi	r22, 0x01	; 1
     ac4:	71 09       	sbc	r23, r1
     ac6:	61 15       	cp	r22, r1
     ac8:	70 41       	sbci	r23, 0x10	; 16
     aca:	0c f4       	brge	.+2      	; 0xace <serial_set_baud+0x5a0>
     acc:	f1 c1       	rjmp	.+994    	; 0xeb0 <serial_set_baud+0x982>
     ace:	20 e0       	ldi	r18, 0x00	; 0
     ad0:	30 e0       	ldi	r19, 0x00	; 0
     ad2:	40 e8       	ldi	r20, 0x80	; 128
     ad4:	53 e4       	ldi	r21, 0x43	; 67
     ad6:	69 81       	ldd	r22, Y+1	; 0x01
     ad8:	7a 81       	ldd	r23, Y+2	; 0x02
     ada:	8b 81       	ldd	r24, Y+3	; 0x03
     adc:	9c 81       	ldd	r25, Y+4	; 0x04
     ade:	0e 94 64 0a 	call	0x14c8	; 0x14c8 <__mulsf3>
     ae2:	9b 01       	movw	r18, r22
     ae4:	ac 01       	movw	r20, r24
     ae6:	c3 01       	movw	r24, r6
     ae8:	b2 01       	movw	r22, r4
     aea:	0e 94 2e 09 	call	0x125c	; 0x125c <__divsf3>
     aee:	0e 94 a0 09 	call	0x1340	; 0x1340 <__fixsfsi>
     af2:	61 50       	subi	r22, 0x01	; 1
     af4:	71 09       	sbc	r23, r1
     af6:	61 15       	cp	r22, r1
     af8:	70 41       	sbci	r23, 0x10	; 16
     afa:	0c f4       	brge	.+2      	; 0xafe <serial_set_baud+0x5d0>
     afc:	db c1       	rjmp	.+950    	; 0xeb4 <serial_set_baud+0x986>
     afe:	20 e0       	ldi	r18, 0x00	; 0
     b00:	30 e0       	ldi	r19, 0x00	; 0
     b02:	40 e0       	ldi	r20, 0x00	; 0
     b04:	54 e4       	ldi	r21, 0x44	; 68
     b06:	69 81       	ldd	r22, Y+1	; 0x01
     b08:	7a 81       	ldd	r23, Y+2	; 0x02
     b0a:	8b 81       	ldd	r24, Y+3	; 0x03
     b0c:	9c 81       	ldd	r25, Y+4	; 0x04
     b0e:	0e 94 64 0a 	call	0x14c8	; 0x14c8 <__mulsf3>
     b12:	9b 01       	movw	r18, r22
     b14:	ac 01       	movw	r20, r24
     b16:	c3 01       	movw	r24, r6
     b18:	b2 01       	movw	r22, r4
     b1a:	0e 94 2e 09 	call	0x125c	; 0x125c <__divsf3>
     b1e:	0e 94 a0 09 	call	0x1340	; 0x1340 <__fixsfsi>
     b22:	61 50       	subi	r22, 0x01	; 1
     b24:	71 09       	sbc	r23, r1
     b26:	61 15       	cp	r22, r1
     b28:	70 41       	sbci	r23, 0x10	; 16
     b2a:	0c f4       	brge	.+2      	; 0xb2e <serial_set_baud+0x600>
     b2c:	c5 c1       	rjmp	.+906    	; 0xeb8 <serial_set_baud+0x98a>
     b2e:	20 e0       	ldi	r18, 0x00	; 0
     b30:	30 e0       	ldi	r19, 0x00	; 0
     b32:	40 e8       	ldi	r20, 0x80	; 128
     b34:	54 e4       	ldi	r21, 0x44	; 68
     b36:	69 81       	ldd	r22, Y+1	; 0x01
     b38:	7a 81       	ldd	r23, Y+2	; 0x02
     b3a:	8b 81       	ldd	r24, Y+3	; 0x03
     b3c:	9c 81       	ldd	r25, Y+4	; 0x04
     b3e:	0e 94 64 0a 	call	0x14c8	; 0x14c8 <__mulsf3>
     b42:	9b 01       	movw	r18, r22
     b44:	ac 01       	movw	r20, r24
     b46:	c3 01       	movw	r24, r6
     b48:	b2 01       	movw	r22, r4
     b4a:	0e 94 2e 09 	call	0x125c	; 0x125c <__divsf3>
     b4e:	0e 94 a0 09 	call	0x1340	; 0x1340 <__fixsfsi>
     b52:	61 50       	subi	r22, 0x01	; 1
     b54:	71 09       	sbc	r23, r1
     b56:	61 15       	cp	r22, r1
     b58:	70 41       	sbci	r23, 0x10	; 16
     b5a:	0c f4       	brge	.+2      	; 0xb5e <serial_set_baud+0x630>
     b5c:	af c1       	rjmp	.+862    	; 0xebc <serial_set_baud+0x98e>
     b5e:	10 e7       	ldi	r17, 0x70	; 112
     b60:	ae c1       	rjmp	.+860    	; 0xebe <serial_set_baud+0x990>
     b62:	20 e0       	ldi	r18, 0x00	; 0
     b64:	30 e0       	ldi	r19, 0x00	; 0
     b66:	40 e8       	ldi	r20, 0x80	; 128
     b68:	51 e4       	ldi	r21, 0x41	; 65
     b6a:	c7 01       	movw	r24, r14
     b6c:	b6 01       	movw	r22, r12
     b6e:	0e 94 64 0a 	call	0x14c8	; 0x14c8 <__mulsf3>
     b72:	0e 94 a0 09 	call	0x1340	; 0x1340 <__fixsfsi>
     b76:	61 15       	cp	r22, r1
     b78:	70 41       	sbci	r23, 0x10	; 16
     b7a:	0c f4       	brge	.+2      	; 0xb7e <serial_set_baud+0x650>
     b7c:	76 c1       	rjmp	.+748    	; 0xe6a <serial_set_baud+0x93c>
     b7e:	20 e0       	ldi	r18, 0x00	; 0
     b80:	30 e0       	ldi	r19, 0x00	; 0
     b82:	40 e0       	ldi	r20, 0x00	; 0
     b84:	51 e4       	ldi	r21, 0x41	; 65
     b86:	c7 01       	movw	r24, r14
     b88:	b6 01       	movw	r22, r12
     b8a:	0e 94 64 0a 	call	0x14c8	; 0x14c8 <__mulsf3>
     b8e:	0e 94 a0 09 	call	0x1340	; 0x1340 <__fixsfsi>
     b92:	61 15       	cp	r22, r1
     b94:	70 41       	sbci	r23, 0x10	; 16
     b96:	0c f4       	brge	.+2      	; 0xb9a <serial_set_baud+0x66c>
     b98:	68 c1       	rjmp	.+720    	; 0xe6a <serial_set_baud+0x93c>
     b9a:	20 e0       	ldi	r18, 0x00	; 0
     b9c:	30 e0       	ldi	r19, 0x00	; 0
     b9e:	40 e8       	ldi	r20, 0x80	; 128
     ba0:	50 e4       	ldi	r21, 0x40	; 64
     ba2:	c7 01       	movw	r24, r14
     ba4:	b6 01       	movw	r22, r12
     ba6:	0e 94 64 0a 	call	0x14c8	; 0x14c8 <__mulsf3>
     baa:	0e 94 a0 09 	call	0x1340	; 0x1340 <__fixsfsi>
     bae:	61 15       	cp	r22, r1
     bb0:	70 41       	sbci	r23, 0x10	; 16
     bb2:	0c f4       	brge	.+2      	; 0xbb6 <serial_set_baud+0x688>
     bb4:	5a c1       	rjmp	.+692    	; 0xe6a <serial_set_baud+0x93c>
     bb6:	a7 01       	movw	r20, r14
     bb8:	96 01       	movw	r18, r12
     bba:	c7 01       	movw	r24, r14
     bbc:	b6 01       	movw	r22, r12
     bbe:	0e 94 c2 08 	call	0x1184	; 0x1184 <__addsf3>
     bc2:	0e 94 a0 09 	call	0x1340	; 0x1340 <__fixsfsi>
     bc6:	61 15       	cp	r22, r1
     bc8:	70 41       	sbci	r23, 0x10	; 16
     bca:	0c f4       	brge	.+2      	; 0xbce <serial_set_baud+0x6a0>
     bcc:	4e c1       	rjmp	.+668    	; 0xe6a <serial_set_baud+0x93c>
     bce:	6a c0       	rjmp	.+212    	; 0xca4 <serial_set_baud+0x776>
     bd0:	20 e0       	ldi	r18, 0x00	; 0
     bd2:	30 e0       	ldi	r19, 0x00	; 0
     bd4:	40 e8       	ldi	r20, 0x80	; 128
     bd6:	51 e4       	ldi	r21, 0x41	; 65
     bd8:	c7 01       	movw	r24, r14
     bda:	b6 01       	movw	r22, r12
     bdc:	0e 94 64 0a 	call	0x14c8	; 0x14c8 <__mulsf3>
     be0:	0e 94 a0 09 	call	0x1340	; 0x1340 <__fixsfsi>
     be4:	61 15       	cp	r22, r1
     be6:	70 41       	sbci	r23, 0x10	; 16
     be8:	f4 f1       	brlt	.+124    	; 0xc66 <serial_set_baud+0x738>
     bea:	20 e0       	ldi	r18, 0x00	; 0
     bec:	30 e0       	ldi	r19, 0x00	; 0
     bee:	40 e0       	ldi	r20, 0x00	; 0
     bf0:	51 e4       	ldi	r21, 0x41	; 65
     bf2:	c7 01       	movw	r24, r14
     bf4:	b6 01       	movw	r22, r12
     bf6:	0e 94 64 0a 	call	0x14c8	; 0x14c8 <__mulsf3>
     bfa:	0e 94 a0 09 	call	0x1340	; 0x1340 <__fixsfsi>
     bfe:	61 15       	cp	r22, r1
     c00:	70 41       	sbci	r23, 0x10	; 16
     c02:	b4 f1       	brlt	.+108    	; 0xc70 <serial_set_baud+0x742>
     c04:	20 e0       	ldi	r18, 0x00	; 0
     c06:	30 e0       	ldi	r19, 0x00	; 0
     c08:	40 e8       	ldi	r20, 0x80	; 128
     c0a:	50 e4       	ldi	r21, 0x40	; 64
     c0c:	c7 01       	movw	r24, r14
     c0e:	b6 01       	movw	r22, r12
     c10:	0e 94 64 0a 	call	0x14c8	; 0x14c8 <__mulsf3>
     c14:	0e 94 a0 09 	call	0x1340	; 0x1340 <__fixsfsi>
     c18:	61 15       	cp	r22, r1
     c1a:	70 41       	sbci	r23, 0x10	; 16
     c1c:	74 f1       	brlt	.+92     	; 0xc7a <serial_set_baud+0x74c>
     c1e:	a7 01       	movw	r20, r14
     c20:	96 01       	movw	r18, r12
     c22:	c7 01       	movw	r24, r14
     c24:	b6 01       	movw	r22, r12
     c26:	0e 94 c2 08 	call	0x1184	; 0x1184 <__addsf3>
     c2a:	0e 94 a0 09 	call	0x1340	; 0x1340 <__fixsfsi>
     c2e:	61 15       	cp	r22, r1
     c30:	70 41       	sbci	r23, 0x10	; 16
     c32:	44 f1       	brlt	.+80     	; 0xc84 <serial_set_baud+0x756>
     c34:	c5 01       	movw	r24, r10
     c36:	b4 01       	movw	r22, r8
     c38:	0e 94 a0 09 	call	0x1340	; 0x1340 <__fixsfsi>
     c3c:	61 50       	subi	r22, 0x01	; 1
     c3e:	71 09       	sbc	r23, r1
     c40:	61 15       	cp	r22, r1
     c42:	70 41       	sbci	r23, 0x10	; 16
     c44:	24 f1       	brlt	.+72     	; 0xc8e <serial_set_baud+0x760>
     c46:	60 e0       	ldi	r22, 0x00	; 0
     c48:	70 e0       	ldi	r23, 0x00	; 0
     c4a:	cb 01       	movw	r24, r22
     c4c:	24 c0       	rjmp	.+72     	; 0xc96 <serial_set_baud+0x768>
     c4e:	10 e9       	ldi	r17, 0x90	; 144
     c50:	60 e0       	ldi	r22, 0x00	; 0
     c52:	70 e0       	ldi	r23, 0x00	; 0
     c54:	80 e0       	ldi	r24, 0x00	; 0
     c56:	93 e4       	ldi	r25, 0x43	; 67
     c58:	1e c0       	rjmp	.+60     	; 0xc96 <serial_set_baud+0x768>
     c5a:	10 ea       	ldi	r17, 0xA0	; 160
     c5c:	60 e0       	ldi	r22, 0x00	; 0
     c5e:	70 e0       	ldi	r23, 0x00	; 0
     c60:	80 e8       	ldi	r24, 0x80	; 128
     c62:	92 e4       	ldi	r25, 0x42	; 66
     c64:	18 c0       	rjmp	.+48     	; 0xc96 <serial_set_baud+0x768>
     c66:	60 e0       	ldi	r22, 0x00	; 0
     c68:	70 e0       	ldi	r23, 0x00	; 0
     c6a:	80 e8       	ldi	r24, 0x80	; 128
     c6c:	91 e4       	ldi	r25, 0x41	; 65
     c6e:	13 c0       	rjmp	.+38     	; 0xc96 <serial_set_baud+0x768>
     c70:	60 e0       	ldi	r22, 0x00	; 0
     c72:	70 e0       	ldi	r23, 0x00	; 0
     c74:	80 e0       	ldi	r24, 0x00	; 0
     c76:	91 e4       	ldi	r25, 0x41	; 65
     c78:	0e c0       	rjmp	.+28     	; 0xc96 <serial_set_baud+0x768>
     c7a:	60 e0       	ldi	r22, 0x00	; 0
     c7c:	70 e0       	ldi	r23, 0x00	; 0
     c7e:	80 e8       	ldi	r24, 0x80	; 128
     c80:	90 e4       	ldi	r25, 0x40	; 64
     c82:	09 c0       	rjmp	.+18     	; 0xc96 <serial_set_baud+0x768>
     c84:	60 e0       	ldi	r22, 0x00	; 0
     c86:	70 e0       	ldi	r23, 0x00	; 0
     c88:	80 e0       	ldi	r24, 0x00	; 0
     c8a:	90 e4       	ldi	r25, 0x40	; 64
     c8c:	04 c0       	rjmp	.+8      	; 0xc96 <serial_set_baud+0x768>
     c8e:	60 e0       	ldi	r22, 0x00	; 0
     c90:	70 e0       	ldi	r23, 0x00	; 0
     c92:	80 e8       	ldi	r24, 0x80	; 128
     c94:	9f e3       	ldi	r25, 0x3F	; 63
     c96:	a7 01       	movw	r20, r14
     c98:	96 01       	movw	r18, r12
     c9a:	0e 94 64 0a 	call	0x14c8	; 0x14c8 <__mulsf3>
     c9e:	0e 94 a0 09 	call	0x1340	; 0x1340 <__fixsfsi>
     ca2:	1b c1       	rjmp	.+566    	; 0xeda <serial_set_baud+0x9ac>
     ca4:	c5 01       	movw	r24, r10
     ca6:	b4 01       	movw	r22, r8
     ca8:	0e 94 a0 09 	call	0x1340	; 0x1340 <__fixsfsi>
     cac:	61 50       	subi	r22, 0x01	; 1
     cae:	71 09       	sbc	r23, r1
     cb0:	61 15       	cp	r22, r1
     cb2:	70 41       	sbci	r23, 0x10	; 16
     cb4:	0c f4       	brge	.+2      	; 0xcb8 <serial_set_baud+0x78a>
     cb6:	93 c0       	rjmp	.+294    	; 0xdde <serial_set_baud+0x8b0>
     cb8:	20 e0       	ldi	r18, 0x00	; 0
     cba:	30 e0       	ldi	r19, 0x00	; 0
     cbc:	40 e0       	ldi	r20, 0x00	; 0
     cbe:	52 e4       	ldi	r21, 0x42	; 66
     cc0:	69 81       	ldd	r22, Y+1	; 0x01
     cc2:	7a 81       	ldd	r23, Y+2	; 0x02
     cc4:	8b 81       	ldd	r24, Y+3	; 0x03
     cc6:	9c 81       	ldd	r25, Y+4	; 0x04
     cc8:	0e 94 64 0a 	call	0x14c8	; 0x14c8 <__mulsf3>
     ccc:	9b 01       	movw	r18, r22
     cce:	ac 01       	movw	r20, r24
     cd0:	c3 01       	movw	r24, r6
     cd2:	b2 01       	movw	r22, r4
     cd4:	0e 94 2e 09 	call	0x125c	; 0x125c <__divsf3>
     cd8:	0e 94 a0 09 	call	0x1340	; 0x1340 <__fixsfsi>
     cdc:	61 50       	subi	r22, 0x01	; 1
     cde:	71 09       	sbc	r23, r1
     ce0:	61 15       	cp	r22, r1
     ce2:	70 41       	sbci	r23, 0x10	; 16
     ce4:	0c f4       	brge	.+2      	; 0xce8 <serial_set_baud+0x7ba>
     ce6:	80 c0       	rjmp	.+256    	; 0xde8 <serial_set_baud+0x8ba>
     ce8:	20 e0       	ldi	r18, 0x00	; 0
     cea:	30 e0       	ldi	r19, 0x00	; 0
     cec:	40 e8       	ldi	r20, 0x80	; 128
     cee:	52 e4       	ldi	r21, 0x42	; 66
     cf0:	69 81       	ldd	r22, Y+1	; 0x01
     cf2:	7a 81       	ldd	r23, Y+2	; 0x02
     cf4:	8b 81       	ldd	r24, Y+3	; 0x03
     cf6:	9c 81       	ldd	r25, Y+4	; 0x04
     cf8:	0e 94 64 0a 	call	0x14c8	; 0x14c8 <__mulsf3>
     cfc:	9b 01       	movw	r18, r22
     cfe:	ac 01       	movw	r20, r24
     d00:	c3 01       	movw	r24, r6
     d02:	b2 01       	movw	r22, r4
     d04:	0e 94 2e 09 	call	0x125c	; 0x125c <__divsf3>
     d08:	0e 94 a0 09 	call	0x1340	; 0x1340 <__fixsfsi>
     d0c:	61 50       	subi	r22, 0x01	; 1
     d0e:	71 09       	sbc	r23, r1
     d10:	61 15       	cp	r22, r1
     d12:	70 41       	sbci	r23, 0x10	; 16
     d14:	0c f4       	brge	.+2      	; 0xd18 <serial_set_baud+0x7ea>
     d16:	6d c0       	rjmp	.+218    	; 0xdf2 <serial_set_baud+0x8c4>
     d18:	20 e0       	ldi	r18, 0x00	; 0
     d1a:	30 e0       	ldi	r19, 0x00	; 0
     d1c:	40 e0       	ldi	r20, 0x00	; 0
     d1e:	53 e4       	ldi	r21, 0x43	; 67
     d20:	69 81       	ldd	r22, Y+1	; 0x01
     d22:	7a 81       	ldd	r23, Y+2	; 0x02
     d24:	8b 81       	ldd	r24, Y+3	; 0x03
     d26:	9c 81       	ldd	r25, Y+4	; 0x04
     d28:	0e 94 64 0a 	call	0x14c8	; 0x14c8 <__mulsf3>
     d2c:	9b 01       	movw	r18, r22
     d2e:	ac 01       	movw	r20, r24
     d30:	c3 01       	movw	r24, r6
     d32:	b2 01       	movw	r22, r4
     d34:	0e 94 2e 09 	call	0x125c	; 0x125c <__divsf3>
     d38:	0e 94 a0 09 	call	0x1340	; 0x1340 <__fixsfsi>
     d3c:	61 50       	subi	r22, 0x01	; 1
     d3e:	71 09       	sbc	r23, r1
     d40:	61 15       	cp	r22, r1
     d42:	70 41       	sbci	r23, 0x10	; 16
     d44:	0c f4       	brge	.+2      	; 0xd48 <serial_set_baud+0x81a>
     d46:	5a c0       	rjmp	.+180    	; 0xdfc <serial_set_baud+0x8ce>
     d48:	20 e0       	ldi	r18, 0x00	; 0
     d4a:	30 e0       	ldi	r19, 0x00	; 0
     d4c:	40 e8       	ldi	r20, 0x80	; 128
     d4e:	53 e4       	ldi	r21, 0x43	; 67
     d50:	69 81       	ldd	r22, Y+1	; 0x01
     d52:	7a 81       	ldd	r23, Y+2	; 0x02
     d54:	8b 81       	ldd	r24, Y+3	; 0x03
     d56:	9c 81       	ldd	r25, Y+4	; 0x04
     d58:	0e 94 64 0a 	call	0x14c8	; 0x14c8 <__mulsf3>
     d5c:	9b 01       	movw	r18, r22
     d5e:	ac 01       	movw	r20, r24
     d60:	c3 01       	movw	r24, r6
     d62:	b2 01       	movw	r22, r4
     d64:	0e 94 2e 09 	call	0x125c	; 0x125c <__divsf3>
     d68:	0e 94 a0 09 	call	0x1340	; 0x1340 <__fixsfsi>
     d6c:	61 50       	subi	r22, 0x01	; 1
     d6e:	71 09       	sbc	r23, r1
     d70:	61 15       	cp	r22, r1
     d72:	70 41       	sbci	r23, 0x10	; 16
     d74:	0c f4       	brge	.+2      	; 0xd78 <serial_set_baud+0x84a>
     d76:	47 c0       	rjmp	.+142    	; 0xe06 <serial_set_baud+0x8d8>
     d78:	20 e0       	ldi	r18, 0x00	; 0
     d7a:	30 e0       	ldi	r19, 0x00	; 0
     d7c:	40 e0       	ldi	r20, 0x00	; 0
     d7e:	54 e4       	ldi	r21, 0x44	; 68
     d80:	69 81       	ldd	r22, Y+1	; 0x01
     d82:	7a 81       	ldd	r23, Y+2	; 0x02
     d84:	8b 81       	ldd	r24, Y+3	; 0x03
     d86:	9c 81       	ldd	r25, Y+4	; 0x04
     d88:	0e 94 64 0a 	call	0x14c8	; 0x14c8 <__mulsf3>
     d8c:	9b 01       	movw	r18, r22
     d8e:	ac 01       	movw	r20, r24
     d90:	c3 01       	movw	r24, r6
     d92:	b2 01       	movw	r22, r4
     d94:	0e 94 2e 09 	call	0x125c	; 0x125c <__divsf3>
     d98:	0e 94 a0 09 	call	0x1340	; 0x1340 <__fixsfsi>
     d9c:	61 50       	subi	r22, 0x01	; 1
     d9e:	71 09       	sbc	r23, r1
     da0:	61 15       	cp	r22, r1
     da2:	70 41       	sbci	r23, 0x10	; 16
     da4:	ac f1       	brlt	.+106    	; 0xe10 <serial_set_baud+0x8e2>
     da6:	20 e0       	ldi	r18, 0x00	; 0
     da8:	30 e0       	ldi	r19, 0x00	; 0
     daa:	40 e8       	ldi	r20, 0x80	; 128
     dac:	54 e4       	ldi	r21, 0x44	; 68
     dae:	69 81       	ldd	r22, Y+1	; 0x01
     db0:	7a 81       	ldd	r23, Y+2	; 0x02
     db2:	8b 81       	ldd	r24, Y+3	; 0x03
     db4:	9c 81       	ldd	r25, Y+4	; 0x04
     db6:	0e 94 64 0a 	call	0x14c8	; 0x14c8 <__mulsf3>
     dba:	9b 01       	movw	r18, r22
     dbc:	ac 01       	movw	r20, r24
     dbe:	c3 01       	movw	r24, r6
     dc0:	b2 01       	movw	r22, r4
     dc2:	0e 94 2e 09 	call	0x125c	; 0x125c <__divsf3>
     dc6:	0e 94 a0 09 	call	0x1340	; 0x1340 <__fixsfsi>
     dca:	61 50       	subi	r22, 0x01	; 1
     dcc:	71 09       	sbc	r23, r1
     dce:	61 15       	cp	r22, r1
     dd0:	70 41       	sbci	r23, 0x10	; 16
     dd2:	1c f1       	brlt	.+70     	; 0xe1a <serial_set_baud+0x8ec>
     dd4:	60 e0       	ldi	r22, 0x00	; 0
     dd6:	70 e0       	ldi	r23, 0x00	; 0
     dd8:	80 e0       	ldi	r24, 0x00	; 0
     dda:	95 e4       	ldi	r25, 0x45	; 69
     ddc:	22 c0       	rjmp	.+68     	; 0xe22 <serial_set_baud+0x8f4>
     dde:	60 e0       	ldi	r22, 0x00	; 0
     de0:	70 e0       	ldi	r23, 0x00	; 0
     de2:	80 e8       	ldi	r24, 0x80	; 128
     de4:	91 e4       	ldi	r25, 0x41	; 65
     de6:	1d c0       	rjmp	.+58     	; 0xe22 <serial_set_baud+0x8f4>
     de8:	60 e0       	ldi	r22, 0x00	; 0
     dea:	70 e0       	ldi	r23, 0x00	; 0
     dec:	80 e0       	ldi	r24, 0x00	; 0
     dee:	92 e4       	ldi	r25, 0x42	; 66
     df0:	18 c0       	rjmp	.+48     	; 0xe22 <serial_set_baud+0x8f4>
     df2:	60 e0       	ldi	r22, 0x00	; 0
     df4:	70 e0       	ldi	r23, 0x00	; 0
     df6:	80 e8       	ldi	r24, 0x80	; 128
     df8:	92 e4       	ldi	r25, 0x42	; 66
     dfa:	13 c0       	rjmp	.+38     	; 0xe22 <serial_set_baud+0x8f4>
     dfc:	60 e0       	ldi	r22, 0x00	; 0
     dfe:	70 e0       	ldi	r23, 0x00	; 0
     e00:	80 e0       	ldi	r24, 0x00	; 0
     e02:	93 e4       	ldi	r25, 0x43	; 67
     e04:	0e c0       	rjmp	.+28     	; 0xe22 <serial_set_baud+0x8f4>
     e06:	60 e0       	ldi	r22, 0x00	; 0
     e08:	70 e0       	ldi	r23, 0x00	; 0
     e0a:	80 e8       	ldi	r24, 0x80	; 128
     e0c:	93 e4       	ldi	r25, 0x43	; 67
     e0e:	09 c0       	rjmp	.+18     	; 0xe22 <serial_set_baud+0x8f4>
     e10:	60 e0       	ldi	r22, 0x00	; 0
     e12:	70 e0       	ldi	r23, 0x00	; 0
     e14:	80 e0       	ldi	r24, 0x00	; 0
     e16:	94 e4       	ldi	r25, 0x44	; 68
     e18:	04 c0       	rjmp	.+8      	; 0xe22 <serial_set_baud+0x8f4>
     e1a:	60 e0       	ldi	r22, 0x00	; 0
     e1c:	70 e0       	ldi	r23, 0x00	; 0
     e1e:	80 e8       	ldi	r24, 0x80	; 128
     e20:	94 e4       	ldi	r25, 0x44	; 68
     e22:	29 81       	ldd	r18, Y+1	; 0x01
     e24:	3a 81       	ldd	r19, Y+2	; 0x02
     e26:	4b 81       	ldd	r20, Y+3	; 0x03
     e28:	5c 81       	ldd	r21, Y+4	; 0x04
     e2a:	0e 94 64 0a 	call	0x14c8	; 0x14c8 <__mulsf3>
     e2e:	9b 01       	movw	r18, r22
     e30:	ac 01       	movw	r20, r24
     e32:	c3 01       	movw	r24, r6
     e34:	b2 01       	movw	r22, r4
     e36:	0e 94 2e 09 	call	0x125c	; 0x125c <__divsf3>
     e3a:	0e 94 a0 09 	call	0x1340	; 0x1340 <__fixsfsi>
     e3e:	61 50       	subi	r22, 0x01	; 1
     e40:	71 09       	sbc	r23, r1
     e42:	4b c0       	rjmp	.+150    	; 0xeda <serial_set_baud+0x9ac>
     e44:	20 e0       	ldi	r18, 0x00	; 0
     e46:	30 e0       	ldi	r19, 0x00	; 0
     e48:	40 e0       	ldi	r20, 0x00	; 0
     e4a:	52 e4       	ldi	r21, 0x42	; 66
     e4c:	c7 01       	movw	r24, r14
     e4e:	b6 01       	movw	r22, r12
     e50:	0e 94 64 0a 	call	0x14c8	; 0x14c8 <__mulsf3>
     e54:	0e 94 a0 09 	call	0x1340	; 0x1340 <__fixsfsi>
     e58:	61 15       	cp	r22, r1
     e5a:	70 41       	sbci	r23, 0x10	; 16
     e5c:	0c f0       	brlt	.+2      	; 0xe60 <serial_set_baud+0x932>
     e5e:	1a cc       	rjmp	.-1996   	; 0x694 <serial_set_baud+0x166>
     e60:	60 e0       	ldi	r22, 0x00	; 0
     e62:	70 e0       	ldi	r23, 0x00	; 0
     e64:	80 e0       	ldi	r24, 0x00	; 0
     e66:	92 e4       	ldi	r25, 0x42	; 66
     e68:	78 cc       	rjmp	.-1808   	; 0x75a <serial_set_baud+0x22c>
     e6a:	20 e0       	ldi	r18, 0x00	; 0
     e6c:	30 e0       	ldi	r19, 0x00	; 0
     e6e:	40 e0       	ldi	r20, 0x00	; 0
     e70:	52 e4       	ldi	r21, 0x42	; 66
     e72:	c7 01       	movw	r24, r14
     e74:	b6 01       	movw	r22, r12
     e76:	0e 94 64 0a 	call	0x14c8	; 0x14c8 <__mulsf3>
     e7a:	0e 94 a0 09 	call	0x1340	; 0x1340 <__fixsfsi>
     e7e:	61 15       	cp	r22, r1
     e80:	70 41       	sbci	r23, 0x10	; 16
     e82:	0c f0       	brlt	.+2      	; 0xe86 <serial_set_baud+0x958>
     e84:	a5 ce       	rjmp	.-694    	; 0xbd0 <serial_set_baud+0x6a2>
     e86:	60 e0       	ldi	r22, 0x00	; 0
     e88:	70 e0       	ldi	r23, 0x00	; 0
     e8a:	80 e0       	ldi	r24, 0x00	; 0
     e8c:	92 e4       	ldi	r25, 0x42	; 66
     e8e:	03 cf       	rjmp	.-506    	; 0xc96 <serial_set_baud+0x768>
     e90:	10 eb       	ldi	r17, 0xB0	; 176
     e92:	15 c0       	rjmp	.+42     	; 0xebe <serial_set_baud+0x990>
     e94:	10 ec       	ldi	r17, 0xC0	; 192
     e96:	13 c0       	rjmp	.+38     	; 0xebe <serial_set_baud+0x990>
     e98:	10 ed       	ldi	r17, 0xD0	; 208
     e9a:	11 c0       	rjmp	.+34     	; 0xebe <serial_set_baud+0x990>
     e9c:	10 ee       	ldi	r17, 0xE0	; 224
     e9e:	0f c0       	rjmp	.+30     	; 0xebe <serial_set_baud+0x990>
     ea0:	10 ef       	ldi	r17, 0xF0	; 240
     ea2:	0d c0       	rjmp	.+26     	; 0xebe <serial_set_baud+0x990>
     ea4:	10 e0       	ldi	r17, 0x00	; 0
     ea6:	0b c0       	rjmp	.+22     	; 0xebe <serial_set_baud+0x990>
     ea8:	10 e1       	ldi	r17, 0x10	; 16
     eaa:	09 c0       	rjmp	.+18     	; 0xebe <serial_set_baud+0x990>
     eac:	10 e2       	ldi	r17, 0x20	; 32
     eae:	07 c0       	rjmp	.+14     	; 0xebe <serial_set_baud+0x990>
     eb0:	10 e3       	ldi	r17, 0x30	; 48
     eb2:	05 c0       	rjmp	.+10     	; 0xebe <serial_set_baud+0x990>
     eb4:	10 e4       	ldi	r17, 0x40	; 64
     eb6:	03 c0       	rjmp	.+6      	; 0xebe <serial_set_baud+0x990>
     eb8:	10 e5       	ldi	r17, 0x50	; 80
     eba:	01 c0       	rjmp	.+2      	; 0xebe <serial_set_baud+0x990>
     ebc:	10 e6       	ldi	r17, 0x60	; 96
     ebe:	20 e0       	ldi	r18, 0x00	; 0
     ec0:	30 e0       	ldi	r19, 0x00	; 0
     ec2:	40 e0       	ldi	r20, 0x00	; 0
     ec4:	52 e4       	ldi	r21, 0x42	; 66
     ec6:	c7 01       	movw	r24, r14
     ec8:	b6 01       	movw	r22, r12
     eca:	0e 94 64 0a 	call	0x14c8	; 0x14c8 <__mulsf3>
     ece:	0e 94 a0 09 	call	0x1340	; 0x1340 <__fixsfsi>
     ed2:	61 15       	cp	r22, r1
     ed4:	70 41       	sbci	r23, 0x10	; 16
     ed6:	4c f2       	brlt	.-110    	; 0xe6a <serial_set_baud+0x93c>
     ed8:	44 ce       	rjmp	.-888    	; 0xb62 <serial_set_baud+0x634>
     eda:	71 2b       	or	r23, r17
     edc:	ed 81       	ldd	r30, Y+5	; 0x05
     ede:	fe 81       	ldd	r31, Y+6	; 0x06
     ee0:	77 83       	std	Z+7, r23	; 0x07
     ee2:	81 e0       	ldi	r24, 0x01	; 1
     ee4:	2a 96       	adiw	r28, 0x0a	; 10
     ee6:	cd bf       	out	0x3d, r28	; 61
     ee8:	de bf       	out	0x3e, r29	; 62
     eea:	df 91       	pop	r29
     eec:	cf 91       	pop	r28
     eee:	1f 91       	pop	r17
     ef0:	0f 91       	pop	r16
     ef2:	ff 90       	pop	r15
     ef4:	ef 90       	pop	r14
     ef6:	df 90       	pop	r13
     ef8:	cf 90       	pop	r12
     efa:	bf 90       	pop	r11
     efc:	af 90       	pop	r10
     efe:	9f 90       	pop	r9
     f00:	8f 90       	pop	r8
     f02:	7f 90       	pop	r7
     f04:	6f 90       	pop	r6
     f06:	5f 90       	pop	r5
     f08:	4f 90       	pop	r4
     f0a:	3f 90       	pop	r3
     f0c:	2f 90       	pop	r2
     f0e:	08 95       	ret

00000f10 <serial_set_rx>:

SERIAL_RET_t serial_set_rx (SERIAL_t * serial, uint8_t rx_state) {
	serial->_rx_en = rx_state;
     f10:	dc 01       	movw	r26, r24
     f12:	1a 96       	adiw	r26, 0x0a	; 10
     f14:	6c 93       	st	X, r22
     f16:	1a 97       	sbiw	r26, 0x0a	; 10
	
	serial->_usart->CTRLB |= rx_state;
     f18:	ed 91       	ld	r30, X+
     f1a:	fc 91       	ld	r31, X
     f1c:	84 81       	ldd	r24, Z+4	; 0x04
     f1e:	68 2b       	or	r22, r24
     f20:	64 83       	std	Z+4, r22	; 0x04
	
	return OK;
}
     f22:	81 e0       	ldi	r24, 0x01	; 1
     f24:	08 95       	ret

00000f26 <serial_listen>:

SERIAL_RET_t serial_listen (SERIAL_t * serial) {	
     f26:	cf 93       	push	r28
     f28:	df 93       	push	r29
     f2a:	ec 01       	movw	r28, r24
	serial_set_rx(serial, (uint8_t) USART_RXEN_bm);
     f2c:	60 e1       	ldi	r22, 0x10	; 16
     f2e:	0e 94 88 07 	call	0xf10	; 0xf10 <serial_set_rx>
	serial->_usart->CTRLA |= USART_RXCINTLVL_LO_gc;
     f32:	e8 81       	ld	r30, Y
     f34:	f9 81       	ldd	r31, Y+1	; 0x01
     f36:	83 81       	ldd	r24, Z+3	; 0x03
     f38:	80 61       	ori	r24, 0x10	; 16
     f3a:	83 83       	std	Z+3, r24	; 0x03

	return OK;
}
     f3c:	81 e0       	ldi	r24, 0x01	; 1
     f3e:	df 91       	pop	r29
     f40:	cf 91       	pop	r28
     f42:	08 95       	ret

00000f44 <serial_available>:

SERIAL_RET_t serial_available (SERIAL_t * serial) {
	if (serial->_rx_counter) {
     f44:	fc 01       	movw	r30, r24
     f46:	21 8d       	ldd	r18, Z+25	; 0x19
     f48:	32 8d       	ldd	r19, Z+26	; 0x1a
     f4a:	81 e0       	ldi	r24, 0x01	; 1
     f4c:	23 2b       	or	r18, r19
     f4e:	09 f4       	brne	.+2      	; 0xf52 <serial_available+0xe>
     f50:	80 e0       	ldi	r24, 0x00	; 0
		return OK;
	}
	
	return ERROR;
}
     f52:	08 95       	ret

00000f54 <serial_putchar>:

SERIAL_RET_t serial_putchar (SERIAL_t * serial, uint8_t c) {
     f54:	fc 01       	movw	r30, r24
	while (serial->_tx_counter == serial->_tx_buf_size);
     f56:	86 85       	ldd	r24, Z+14	; 0x0e
     f58:	97 85       	ldd	r25, Z+15	; 0x0f
     f5a:	23 8d       	ldd	r18, Z+27	; 0x1b
     f5c:	34 8d       	ldd	r19, Z+28	; 0x1c
     f5e:	28 17       	cp	r18, r24
     f60:	39 07       	cpc	r19, r25
     f62:	d9 f3       	breq	.-10     	; 0xf5a <serial_putchar+0x6>
	
	asm("cli");
     f64:	f8 94       	cli
	
	if (serial->_tx_counter || ((serial->_usart->STATUS & USART_DREIF_bm) == 0))
     f66:	83 8d       	ldd	r24, Z+27	; 0x1b
     f68:	94 8d       	ldd	r25, Z+28	; 0x1c
     f6a:	89 2b       	or	r24, r25
     f6c:	39 f4       	brne	.+14     	; 0xf7c <serial_putchar+0x28>
     f6e:	a0 81       	ld	r26, Z
     f70:	b1 81       	ldd	r27, Z+1	; 0x01
     f72:	11 96       	adiw	r26, 0x01	; 1
     f74:	8c 91       	ld	r24, X
     f76:	11 97       	sbiw	r26, 0x01	; 1
     f78:	85 fd       	sbrc	r24, 5
     f7a:	0f c0       	rjmp	.+30     	; 0xf9a <serial_putchar+0x46>
	{
		serial->_tx_buf[serial->_tx_wr_index++] = c;
     f7c:	a2 89       	ldd	r26, Z+18	; 0x12
     f7e:	b3 89       	ldd	r27, Z+19	; 0x13
     f80:	87 89       	ldd	r24, Z+23	; 0x17
     f82:	91 e0       	ldi	r25, 0x01	; 1
     f84:	98 0f       	add	r25, r24
     f86:	97 8b       	std	Z+23, r25	; 0x17
     f88:	a8 0f       	add	r26, r24
     f8a:	b1 1d       	adc	r27, r1
     f8c:	6c 93       	st	X, r22
		#if TX_BUFFER_SIZE != 256
		if (serial->_tx_wr_index == serial->_tx_buf_size) serial->_tx_wr_index = 0;
		#endif
		++(serial->_tx_counter);
     f8e:	83 8d       	ldd	r24, Z+27	; 0x1b
     f90:	94 8d       	ldd	r25, Z+28	; 0x1c
     f92:	01 96       	adiw	r24, 0x01	; 1
     f94:	83 8f       	std	Z+27, r24	; 0x1b
     f96:	94 8f       	std	Z+28, r25	; 0x1c
     f98:	01 c0       	rjmp	.+2      	; 0xf9c <serial_putchar+0x48>
	} else {
		serial->_usart->DATA = c;
     f9a:	6c 93       	st	X, r22
	}
	
	asm("sei");
     f9c:	78 94       	sei
	
	return OK;
}
     f9e:	81 e0       	ldi	r24, 0x01	; 1
     fa0:	08 95       	ret

00000fa2 <serial_getchar>:

uint8_t serial_getchar (SERIAL_t * serial, SERIAL_t * debug) {
     fa2:	cf 93       	push	r28
     fa4:	fc 01       	movw	r30, r24
     fa6:	ab 01       	movw	r20, r22
	uint8_t data;

	while (serial->_rx_counter == 0);
     fa8:	21 8d       	ldd	r18, Z+25	; 0x19
     faa:	32 8d       	ldd	r19, Z+26	; 0x1a
     fac:	23 2b       	or	r18, r19
     fae:	e1 f3       	breq	.-8      	; 0xfa8 <serial_getchar+0x6>
	
	data = serial->_rx_buf[serial->_rx_rd_index++];
     fb0:	a0 89       	ldd	r26, Z+16	; 0x10
     fb2:	b1 89       	ldd	r27, Z+17	; 0x11
     fb4:	96 89       	ldd	r25, Z+22	; 0x16
     fb6:	81 e0       	ldi	r24, 0x01	; 1
     fb8:	89 0f       	add	r24, r25
     fba:	86 8b       	std	Z+22, r24	; 0x16
     fbc:	a9 0f       	add	r26, r25
     fbe:	b1 1d       	adc	r27, r1
     fc0:	cc 91       	ld	r28, X

	#if RX_BUFFER_SIZE != 256
	if (serial->_rx_rd_index == serial->_rx_buf_size) serial->_rx_rd_index = 0;
	#endif
	asm("cli");
     fc2:	f8 94       	cli
	--(serial->_rx_counter);
     fc4:	21 8d       	ldd	r18, Z+25	; 0x19
     fc6:	32 8d       	ldd	r19, Z+26	; 0x1a
     fc8:	21 50       	subi	r18, 0x01	; 1
     fca:	31 09       	sbc	r19, r1
     fcc:	21 8f       	std	Z+25, r18	; 0x19
     fce:	32 8f       	std	Z+26, r19	; 0x1a
	asm("sei");
     fd0:	78 94       	sei
	
	#ifdef DEBUG
		serial_putchar(debug, data);
     fd2:	6c 2f       	mov	r22, r28
     fd4:	ca 01       	movw	r24, r20
     fd6:	0e 94 aa 07 	call	0xf54	; 0xf54 <serial_putchar>
	#endif
	
	return data;
}
     fda:	8c 2f       	mov	r24, r28
     fdc:	cf 91       	pop	r28
     fde:	08 95       	ret

00000fe0 <serial_puts>:

SERIAL_RET_t serial_puts (SERIAL_t * serial, char * str) {
     fe0:	0f 93       	push	r16
     fe2:	1f 93       	push	r17
     fe4:	cf 93       	push	r28
     fe6:	df 93       	push	r29
     fe8:	eb 01       	movw	r28, r22
	SERIAL_RET_t ret = OK;
	
	while (*str) {
     fea:	68 81       	ld	r22, Y
     fec:	66 23       	and	r22, r22
     fee:	49 f0       	breq	.+18     	; 0x1002 <serial_puts+0x22>
     ff0:	8c 01       	movw	r16, r24
     ff2:	21 96       	adiw	r28, 0x01	; 1
		ret = serial_putchar(serial, *str);
     ff4:	c8 01       	movw	r24, r16
     ff6:	0e 94 aa 07 	call	0xf54	; 0xf54 <serial_putchar>
}

SERIAL_RET_t serial_puts (SERIAL_t * serial, char * str) {
	SERIAL_RET_t ret = OK;
	
	while (*str) {
     ffa:	69 91       	ld	r22, Y+
     ffc:	61 11       	cpse	r22, r1
     ffe:	fa cf       	rjmp	.-12     	; 0xff4 <serial_puts+0x14>
    1000:	01 c0       	rjmp	.+2      	; 0x1004 <serial_puts+0x24>
	
	return data;
}

SERIAL_RET_t serial_puts (SERIAL_t * serial, char * str) {
	SERIAL_RET_t ret = OK;
    1002:	81 e0       	ldi	r24, 0x01	; 1
		ret = serial_putchar(serial, *str);
		str++;
	}
	
	return ret;
}
    1004:	df 91       	pop	r29
    1006:	cf 91       	pop	r28
    1008:	1f 91       	pop	r17
    100a:	0f 91       	pop	r16
    100c:	08 95       	ret

0000100e <serial_gets>:

SERIAL_RET_t serial_gets (SERIAL_t * serial, uint8_t * buf, SERIAL_t * debug) {
    100e:	cf 92       	push	r12
    1010:	df 92       	push	r13
    1012:	ef 92       	push	r14
    1014:	ff 92       	push	r15
    1016:	0f 93       	push	r16
    1018:	1f 93       	push	r17
    101a:	cf 93       	push	r28
    101c:	7c 01       	movw	r14, r24
    101e:	6b 01       	movw	r12, r22
    1020:	8a 01       	movw	r16, r20
	SERIAL_RET_t ret = OK;
	uint8_t c;
	uint8_t i = 0;
    1022:	c0 e0       	ldi	r28, 0x00	; 0
	
	while ((c = serial_getchar(serial, debug))) {
    1024:	05 c0       	rjmp	.+10     	; 0x1030 <serial_gets+0x22>
		buf[i++] = c;
    1026:	f6 01       	movw	r30, r12
    1028:	ec 0f       	add	r30, r28
    102a:	f1 1d       	adc	r31, r1
    102c:	80 83       	st	Z, r24
    102e:	cf 5f       	subi	r28, 0xFF	; 255
SERIAL_RET_t serial_gets (SERIAL_t * serial, uint8_t * buf, SERIAL_t * debug) {
	SERIAL_RET_t ret = OK;
	uint8_t c;
	uint8_t i = 0;
	
	while ((c = serial_getchar(serial, debug))) {
    1030:	b8 01       	movw	r22, r16
    1032:	c7 01       	movw	r24, r14
    1034:	0e 94 d1 07 	call	0xfa2	; 0xfa2 <serial_getchar>
    1038:	81 11       	cpse	r24, r1
    103a:	f5 cf       	rjmp	.-22     	; 0x1026 <serial_gets+0x18>
		buf[i++] = c;
	}
	
	return ret;
}
    103c:	81 e0       	ldi	r24, 0x01	; 1
    103e:	cf 91       	pop	r28
    1040:	1f 91       	pop	r17
    1042:	0f 91       	pop	r16
    1044:	ff 90       	pop	r15
    1046:	ef 90       	pop	r14
    1048:	df 90       	pop	r13
    104a:	cf 90       	pop	r12
    104c:	08 95       	ret

0000104e <serial_init>:

SERIAL_RET_t serial_init (SERIAL_t * serial, USART_t * usart, PORT_t * port, uint32_t baud, uint32_t f_cpu) {
    104e:	af 92       	push	r10
    1050:	bf 92       	push	r11
    1052:	cf 92       	push	r12
    1054:	df 92       	push	r13
    1056:	ef 92       	push	r14
    1058:	ff 92       	push	r15
    105a:	0f 93       	push	r16
    105c:	1f 93       	push	r17
    105e:	cf 93       	push	r28
    1060:	df 93       	push	r29
    1062:	cd b7       	in	r28, 0x3d	; 61
    1064:	de b7       	in	r29, 0x3e	; 62
    1066:	28 97       	sbiw	r28, 0x08	; 8
    1068:	cd bf       	out	0x3d, r28	; 61
    106a:	de bf       	out	0x3e, r29	; 62
    106c:	5c 01       	movw	r10, r24
    106e:	09 83       	std	Y+1, r16	; 0x01
    1070:	1a 83       	std	Y+2, r17	; 0x02
    1072:	2b 83       	std	Y+3, r18	; 0x03
    1074:	3c 83       	std	Y+4, r19	; 0x04
    1076:	cd 82       	std	Y+5, r12	; 0x05
    1078:	de 82       	std	Y+6, r13	; 0x06
    107a:	ef 82       	std	Y+7, r14	; 0x07
    107c:	f8 86       	std	Y+8, r15	; 0x08
	SERIAL_RET_t ret = OK;
	
	serial->_usart = usart;
    107e:	dc 01       	movw	r26, r24
    1080:	6d 93       	st	X+, r22
    1082:	7c 93       	st	X, r23
    1084:	11 97       	sbiw	r26, 0x01	; 1
	serial->_port = port;
    1086:	12 96       	adiw	r26, 0x02	; 2
    1088:	4d 93       	st	X+, r20
    108a:	5c 93       	st	X, r21
    108c:	13 97       	sbiw	r26, 0x03	; 3
	
	serial->_port->DIR |= PIN3_bm;
    108e:	fa 01       	movw	r30, r20
    1090:	80 81       	ld	r24, Z
    1092:	88 60       	ori	r24, 0x08	; 8
    1094:	80 83       	st	Z, r24
	serial->_port->OUT |= PIN3_bm;
    1096:	12 96       	adiw	r26, 0x02	; 2
    1098:	ed 91       	ld	r30, X+
    109a:	fc 91       	ld	r31, X
    109c:	13 97       	sbiw	r26, 0x03	; 3
    109e:	84 81       	ldd	r24, Z+4	; 0x04
    10a0:	88 60       	ori	r24, 0x08	; 8
    10a2:	84 83       	std	Z+4, r24	; 0x04
	
	serial->_port->OUTSET |= USART_TXEN_bm;
    10a4:	12 96       	adiw	r26, 0x02	; 2
    10a6:	ed 91       	ld	r30, X+
    10a8:	fc 91       	ld	r31, X
    10aa:	13 97       	sbiw	r26, 0x03	; 3
    10ac:	85 81       	ldd	r24, Z+5	; 0x05
    10ae:	88 60       	ori	r24, 0x08	; 8
    10b0:	85 83       	std	Z+5, r24	; 0x05

	serial->_usart->CTRLC |= USART_CMODE_ASYNCHRONOUS_gc | USART_PMODE_DISABLED_gc | USART_CHSIZE_8BIT_gc;
    10b2:	ed 91       	ld	r30, X+
    10b4:	fc 91       	ld	r31, X
    10b6:	11 97       	sbiw	r26, 0x01	; 1
    10b8:	85 81       	ldd	r24, Z+5	; 0x05
    10ba:	83 60       	ori	r24, 0x03	; 3
    10bc:	85 83       	std	Z+5, r24	; 0x05
	
	serial->_usart->CTRLA &= ~(USART_RXCINTLVL_gm | USART_TXCINTLVL_gm | USART_DREINTLVL_gm);
    10be:	ed 91       	ld	r30, X+
    10c0:	fc 91       	ld	r31, X
    10c2:	11 97       	sbiw	r26, 0x01	; 1
    10c4:	83 81       	ldd	r24, Z+3	; 0x03
    10c6:	80 7c       	andi	r24, 0xC0	; 192
    10c8:	83 83       	std	Z+3, r24	; 0x03
	serial->_usart->CTRLA |= USART_DREINTLVL_OFF_gc | USART_TXCINTLVL_LO_gc;
    10ca:	ed 91       	ld	r30, X+
    10cc:	fc 91       	ld	r31, X
    10ce:	83 81       	ldd	r24, Z+3	; 0x03
    10d0:	84 60       	ori	r24, 0x04	; 4
    10d2:	83 83       	std	Z+3, r24	; 0x03
	
	ret = serial_set_baud(serial, &f_cpu, &baud);
    10d4:	ae 01       	movw	r20, r28
    10d6:	4f 5f       	subi	r20, 0xFF	; 255
    10d8:	5f 4f       	sbci	r21, 0xFF	; 255
    10da:	be 01       	movw	r22, r28
    10dc:	6b 5f       	subi	r22, 0xFB	; 251
    10de:	7f 4f       	sbci	r23, 0xFF	; 255
    10e0:	c5 01       	movw	r24, r10
    10e2:	0e 94 97 02 	call	0x52e	; 0x52e <serial_set_baud>
	
	serial->_usart->CTRLB &= ~(USART_RXEN_bm | USART_TXEN_bm | USART_CLK2X_bm | USART_MPCM_bm | USART_TXB8_bm);
    10e6:	d5 01       	movw	r26, r10
    10e8:	ed 91       	ld	r30, X+
    10ea:	fc 91       	ld	r31, X
    10ec:	11 97       	sbiw	r26, 0x01	; 1
    10ee:	84 81       	ldd	r24, Z+4	; 0x04
    10f0:	80 7e       	andi	r24, 0xE0	; 224
    10f2:	84 83       	std	Z+4, r24	; 0x04
	
	return OK;
}

SERIAL_RET_t serial_set_tx (SERIAL_t * serial, uint8_t tx_state) {
	serial->_tx_en = tx_state;
    10f4:	88 e0       	ldi	r24, 0x08	; 8
    10f6:	1b 96       	adiw	r26, 0x0b	; 11
    10f8:	8c 93       	st	X, r24
    10fa:	1b 97       	sbiw	r26, 0x0b	; 11
	
	serial->_usart->CTRLB |= (uint8_t) tx_state;
    10fc:	ed 91       	ld	r30, X+
    10fe:	fc 91       	ld	r31, X
    1100:	11 97       	sbiw	r26, 0x01	; 1
    1102:	84 81       	ldd	r24, Z+4	; 0x04
    1104:	88 60       	ori	r24, 0x08	; 8
    1106:	84 83       	std	Z+4, r24	; 0x04
	
	serial->_usart->CTRLB &= ~(USART_RXEN_bm | USART_TXEN_bm | USART_CLK2X_bm | USART_MPCM_bm | USART_TXB8_bm);
	
	ret = serial_set_tx(serial, (uint8_t) USART_TXEN_bm);
	
	serial->_rx_buf_size = RX_BUFFER_SIZE;
    1108:	80 e0       	ldi	r24, 0x00	; 0
    110a:	91 e0       	ldi	r25, 0x01	; 1
    110c:	1c 96       	adiw	r26, 0x0c	; 12
    110e:	8d 93       	st	X+, r24
    1110:	9c 93       	st	X, r25
    1112:	1d 97       	sbiw	r26, 0x0d	; 13
	serial->_tx_buf_size = TX_BUFFER_SIZE;
    1114:	1e 96       	adiw	r26, 0x0e	; 14
    1116:	8d 93       	st	X+, r24
    1118:	9c 93       	st	X, r25
    111a:	1f 97       	sbiw	r26, 0x0f	; 15
	serial->_rx_rd_index = 0;
    111c:	56 96       	adiw	r26, 0x16	; 22
    111e:	1c 92       	st	X, r1
    1120:	56 97       	sbiw	r26, 0x16	; 22
	serial->_rx_wr_index = 0;
    1122:	55 96       	adiw	r26, 0x15	; 21
    1124:	1c 92       	st	X, r1
    1126:	55 97       	sbiw	r26, 0x15	; 21
	serial->_tx_rd_index = 0;
    1128:	58 96       	adiw	r26, 0x18	; 24
    112a:	1c 92       	st	X, r1
    112c:	58 97       	sbiw	r26, 0x18	; 24
	serial->_tx_wr_index = 0;
    112e:	57 96       	adiw	r26, 0x17	; 23
    1130:	1c 92       	st	X, r1
    1132:	57 97       	sbiw	r26, 0x17	; 23
	serial->_rx_counter = 0;
    1134:	59 96       	adiw	r26, 0x19	; 25
    1136:	1d 92       	st	X+, r1
    1138:	1c 92       	st	X, r1
    113a:	5a 97       	sbiw	r26, 0x1a	; 26
	serial->_tx_counter = 0;
    113c:	5b 96       	adiw	r26, 0x1b	; 27
    113e:	1d 92       	st	X+, r1
    1140:	1c 92       	st	X, r1
    1142:	5c 97       	sbiw	r26, 0x1c	; 28
	serial->_rx_buf_ovf = 0;
    1144:	54 96       	adiw	r26, 0x14	; 20
    1146:	1c 92       	st	X, r1
	
	serial->_rx_buf = (uint8_t *) malloc(RX_BUFFER_SIZE * sizeof(uint8_t));
    1148:	0e 94 d1 0a 	call	0x15a2	; 0x15a2 <malloc>
    114c:	f5 01       	movw	r30, r10
    114e:	80 8b       	std	Z+16, r24	; 0x10
    1150:	91 8b       	std	Z+17, r25	; 0x11
	serial->_tx_buf = (uint8_t *) malloc(TX_BUFFER_SIZE * sizeof(uint8_t));
    1152:	80 e0       	ldi	r24, 0x00	; 0
    1154:	91 e0       	ldi	r25, 0x01	; 1
    1156:	0e 94 d1 0a 	call	0x15a2	; 0x15a2 <malloc>
    115a:	d5 01       	movw	r26, r10
    115c:	52 96       	adiw	r26, 0x12	; 18
    115e:	8d 93       	st	X+, r24
    1160:	9c 93       	st	X, r25
    1162:	53 97       	sbiw	r26, 0x13	; 19
	
	return ret;
    1164:	81 e0       	ldi	r24, 0x01	; 1
    1166:	28 96       	adiw	r28, 0x08	; 8
    1168:	cd bf       	out	0x3d, r28	; 61
    116a:	de bf       	out	0x3e, r29	; 62
    116c:	df 91       	pop	r29
    116e:	cf 91       	pop	r28
    1170:	1f 91       	pop	r17
    1172:	0f 91       	pop	r16
    1174:	ff 90       	pop	r15
    1176:	ef 90       	pop	r14
    1178:	df 90       	pop	r13
    117a:	cf 90       	pop	r12
    117c:	bf 90       	pop	r11
    117e:	af 90       	pop	r10
    1180:	08 95       	ret

00001182 <__subsf3>:
    1182:	50 58       	subi	r21, 0x80	; 128

00001184 <__addsf3>:
    1184:	bb 27       	eor	r27, r27
    1186:	aa 27       	eor	r26, r26
    1188:	0e 94 d9 08 	call	0x11b2	; 0x11b2 <__addsf3x>
    118c:	0c 94 2a 0a 	jmp	0x1454	; 0x1454 <__fp_round>
    1190:	0e 94 1c 0a 	call	0x1438	; 0x1438 <__fp_pscA>
    1194:	38 f0       	brcs	.+14     	; 0x11a4 <__addsf3+0x20>
    1196:	0e 94 23 0a 	call	0x1446	; 0x1446 <__fp_pscB>
    119a:	20 f0       	brcs	.+8      	; 0x11a4 <__addsf3+0x20>
    119c:	39 f4       	brne	.+14     	; 0x11ac <__addsf3+0x28>
    119e:	9f 3f       	cpi	r25, 0xFF	; 255
    11a0:	19 f4       	brne	.+6      	; 0x11a8 <__addsf3+0x24>
    11a2:	26 f4       	brtc	.+8      	; 0x11ac <__addsf3+0x28>
    11a4:	0c 94 19 0a 	jmp	0x1432	; 0x1432 <__fp_nan>
    11a8:	0e f4       	brtc	.+2      	; 0x11ac <__addsf3+0x28>
    11aa:	e0 95       	com	r30
    11ac:	e7 fb       	bst	r30, 7
    11ae:	0c 94 13 0a 	jmp	0x1426	; 0x1426 <__fp_inf>

000011b2 <__addsf3x>:
    11b2:	e9 2f       	mov	r30, r25
    11b4:	0e 94 3b 0a 	call	0x1476	; 0x1476 <__fp_split3>
    11b8:	58 f3       	brcs	.-42     	; 0x1190 <__addsf3+0xc>
    11ba:	ba 17       	cp	r27, r26
    11bc:	62 07       	cpc	r22, r18
    11be:	73 07       	cpc	r23, r19
    11c0:	84 07       	cpc	r24, r20
    11c2:	95 07       	cpc	r25, r21
    11c4:	20 f0       	brcs	.+8      	; 0x11ce <__addsf3x+0x1c>
    11c6:	79 f4       	brne	.+30     	; 0x11e6 <__addsf3x+0x34>
    11c8:	a6 f5       	brtc	.+104    	; 0x1232 <__addsf3x+0x80>
    11ca:	0c 94 5d 0a 	jmp	0x14ba	; 0x14ba <__fp_zero>
    11ce:	0e f4       	brtc	.+2      	; 0x11d2 <__addsf3x+0x20>
    11d0:	e0 95       	com	r30
    11d2:	0b 2e       	mov	r0, r27
    11d4:	ba 2f       	mov	r27, r26
    11d6:	a0 2d       	mov	r26, r0
    11d8:	0b 01       	movw	r0, r22
    11da:	b9 01       	movw	r22, r18
    11dc:	90 01       	movw	r18, r0
    11de:	0c 01       	movw	r0, r24
    11e0:	ca 01       	movw	r24, r20
    11e2:	a0 01       	movw	r20, r0
    11e4:	11 24       	eor	r1, r1
    11e6:	ff 27       	eor	r31, r31
    11e8:	59 1b       	sub	r21, r25
    11ea:	99 f0       	breq	.+38     	; 0x1212 <__addsf3x+0x60>
    11ec:	59 3f       	cpi	r21, 0xF9	; 249
    11ee:	50 f4       	brcc	.+20     	; 0x1204 <__addsf3x+0x52>
    11f0:	50 3e       	cpi	r21, 0xE0	; 224
    11f2:	68 f1       	brcs	.+90     	; 0x124e <__addsf3x+0x9c>
    11f4:	1a 16       	cp	r1, r26
    11f6:	f0 40       	sbci	r31, 0x00	; 0
    11f8:	a2 2f       	mov	r26, r18
    11fa:	23 2f       	mov	r18, r19
    11fc:	34 2f       	mov	r19, r20
    11fe:	44 27       	eor	r20, r20
    1200:	58 5f       	subi	r21, 0xF8	; 248
    1202:	f3 cf       	rjmp	.-26     	; 0x11ea <__addsf3x+0x38>
    1204:	46 95       	lsr	r20
    1206:	37 95       	ror	r19
    1208:	27 95       	ror	r18
    120a:	a7 95       	ror	r26
    120c:	f0 40       	sbci	r31, 0x00	; 0
    120e:	53 95       	inc	r21
    1210:	c9 f7       	brne	.-14     	; 0x1204 <__addsf3x+0x52>
    1212:	7e f4       	brtc	.+30     	; 0x1232 <__addsf3x+0x80>
    1214:	1f 16       	cp	r1, r31
    1216:	ba 0b       	sbc	r27, r26
    1218:	62 0b       	sbc	r22, r18
    121a:	73 0b       	sbc	r23, r19
    121c:	84 0b       	sbc	r24, r20
    121e:	ba f0       	brmi	.+46     	; 0x124e <__addsf3x+0x9c>
    1220:	91 50       	subi	r25, 0x01	; 1
    1222:	a1 f0       	breq	.+40     	; 0x124c <__addsf3x+0x9a>
    1224:	ff 0f       	add	r31, r31
    1226:	bb 1f       	adc	r27, r27
    1228:	66 1f       	adc	r22, r22
    122a:	77 1f       	adc	r23, r23
    122c:	88 1f       	adc	r24, r24
    122e:	c2 f7       	brpl	.-16     	; 0x1220 <__addsf3x+0x6e>
    1230:	0e c0       	rjmp	.+28     	; 0x124e <__addsf3x+0x9c>
    1232:	ba 0f       	add	r27, r26
    1234:	62 1f       	adc	r22, r18
    1236:	73 1f       	adc	r23, r19
    1238:	84 1f       	adc	r24, r20
    123a:	48 f4       	brcc	.+18     	; 0x124e <__addsf3x+0x9c>
    123c:	87 95       	ror	r24
    123e:	77 95       	ror	r23
    1240:	67 95       	ror	r22
    1242:	b7 95       	ror	r27
    1244:	f7 95       	ror	r31
    1246:	9e 3f       	cpi	r25, 0xFE	; 254
    1248:	08 f0       	brcs	.+2      	; 0x124c <__addsf3x+0x9a>
    124a:	b0 cf       	rjmp	.-160    	; 0x11ac <__addsf3+0x28>
    124c:	93 95       	inc	r25
    124e:	88 0f       	add	r24, r24
    1250:	08 f0       	brcs	.+2      	; 0x1254 <__addsf3x+0xa2>
    1252:	99 27       	eor	r25, r25
    1254:	ee 0f       	add	r30, r30
    1256:	97 95       	ror	r25
    1258:	87 95       	ror	r24
    125a:	08 95       	ret

0000125c <__divsf3>:
    125c:	0e 94 42 09 	call	0x1284	; 0x1284 <__divsf3x>
    1260:	0c 94 2a 0a 	jmp	0x1454	; 0x1454 <__fp_round>
    1264:	0e 94 23 0a 	call	0x1446	; 0x1446 <__fp_pscB>
    1268:	58 f0       	brcs	.+22     	; 0x1280 <__divsf3+0x24>
    126a:	0e 94 1c 0a 	call	0x1438	; 0x1438 <__fp_pscA>
    126e:	40 f0       	brcs	.+16     	; 0x1280 <__divsf3+0x24>
    1270:	29 f4       	brne	.+10     	; 0x127c <__divsf3+0x20>
    1272:	5f 3f       	cpi	r21, 0xFF	; 255
    1274:	29 f0       	breq	.+10     	; 0x1280 <__divsf3+0x24>
    1276:	0c 94 13 0a 	jmp	0x1426	; 0x1426 <__fp_inf>
    127a:	51 11       	cpse	r21, r1
    127c:	0c 94 5e 0a 	jmp	0x14bc	; 0x14bc <__fp_szero>
    1280:	0c 94 19 0a 	jmp	0x1432	; 0x1432 <__fp_nan>

00001284 <__divsf3x>:
    1284:	0e 94 3b 0a 	call	0x1476	; 0x1476 <__fp_split3>
    1288:	68 f3       	brcs	.-38     	; 0x1264 <__divsf3+0x8>

0000128a <__divsf3_pse>:
    128a:	99 23       	and	r25, r25
    128c:	b1 f3       	breq	.-20     	; 0x127a <__divsf3+0x1e>
    128e:	55 23       	and	r21, r21
    1290:	91 f3       	breq	.-28     	; 0x1276 <__divsf3+0x1a>
    1292:	95 1b       	sub	r25, r21
    1294:	55 0b       	sbc	r21, r21
    1296:	bb 27       	eor	r27, r27
    1298:	aa 27       	eor	r26, r26
    129a:	62 17       	cp	r22, r18
    129c:	73 07       	cpc	r23, r19
    129e:	84 07       	cpc	r24, r20
    12a0:	38 f0       	brcs	.+14     	; 0x12b0 <__divsf3_pse+0x26>
    12a2:	9f 5f       	subi	r25, 0xFF	; 255
    12a4:	5f 4f       	sbci	r21, 0xFF	; 255
    12a6:	22 0f       	add	r18, r18
    12a8:	33 1f       	adc	r19, r19
    12aa:	44 1f       	adc	r20, r20
    12ac:	aa 1f       	adc	r26, r26
    12ae:	a9 f3       	breq	.-22     	; 0x129a <__divsf3_pse+0x10>
    12b0:	35 d0       	rcall	.+106    	; 0x131c <__divsf3_pse+0x92>
    12b2:	0e 2e       	mov	r0, r30
    12b4:	3a f0       	brmi	.+14     	; 0x12c4 <__divsf3_pse+0x3a>
    12b6:	e0 e8       	ldi	r30, 0x80	; 128
    12b8:	32 d0       	rcall	.+100    	; 0x131e <__divsf3_pse+0x94>
    12ba:	91 50       	subi	r25, 0x01	; 1
    12bc:	50 40       	sbci	r21, 0x00	; 0
    12be:	e6 95       	lsr	r30
    12c0:	00 1c       	adc	r0, r0
    12c2:	ca f7       	brpl	.-14     	; 0x12b6 <__divsf3_pse+0x2c>
    12c4:	2b d0       	rcall	.+86     	; 0x131c <__divsf3_pse+0x92>
    12c6:	fe 2f       	mov	r31, r30
    12c8:	29 d0       	rcall	.+82     	; 0x131c <__divsf3_pse+0x92>
    12ca:	66 0f       	add	r22, r22
    12cc:	77 1f       	adc	r23, r23
    12ce:	88 1f       	adc	r24, r24
    12d0:	bb 1f       	adc	r27, r27
    12d2:	26 17       	cp	r18, r22
    12d4:	37 07       	cpc	r19, r23
    12d6:	48 07       	cpc	r20, r24
    12d8:	ab 07       	cpc	r26, r27
    12da:	b0 e8       	ldi	r27, 0x80	; 128
    12dc:	09 f0       	breq	.+2      	; 0x12e0 <__divsf3_pse+0x56>
    12de:	bb 0b       	sbc	r27, r27
    12e0:	80 2d       	mov	r24, r0
    12e2:	bf 01       	movw	r22, r30
    12e4:	ff 27       	eor	r31, r31
    12e6:	93 58       	subi	r25, 0x83	; 131
    12e8:	5f 4f       	sbci	r21, 0xFF	; 255
    12ea:	3a f0       	brmi	.+14     	; 0x12fa <__divsf3_pse+0x70>
    12ec:	9e 3f       	cpi	r25, 0xFE	; 254
    12ee:	51 05       	cpc	r21, r1
    12f0:	78 f0       	brcs	.+30     	; 0x1310 <__divsf3_pse+0x86>
    12f2:	0c 94 13 0a 	jmp	0x1426	; 0x1426 <__fp_inf>
    12f6:	0c 94 5e 0a 	jmp	0x14bc	; 0x14bc <__fp_szero>
    12fa:	5f 3f       	cpi	r21, 0xFF	; 255
    12fc:	e4 f3       	brlt	.-8      	; 0x12f6 <__divsf3_pse+0x6c>
    12fe:	98 3e       	cpi	r25, 0xE8	; 232
    1300:	d4 f3       	brlt	.-12     	; 0x12f6 <__divsf3_pse+0x6c>
    1302:	86 95       	lsr	r24
    1304:	77 95       	ror	r23
    1306:	67 95       	ror	r22
    1308:	b7 95       	ror	r27
    130a:	f7 95       	ror	r31
    130c:	9f 5f       	subi	r25, 0xFF	; 255
    130e:	c9 f7       	brne	.-14     	; 0x1302 <__divsf3_pse+0x78>
    1310:	88 0f       	add	r24, r24
    1312:	91 1d       	adc	r25, r1
    1314:	96 95       	lsr	r25
    1316:	87 95       	ror	r24
    1318:	97 f9       	bld	r25, 7
    131a:	08 95       	ret
    131c:	e1 e0       	ldi	r30, 0x01	; 1
    131e:	66 0f       	add	r22, r22
    1320:	77 1f       	adc	r23, r23
    1322:	88 1f       	adc	r24, r24
    1324:	bb 1f       	adc	r27, r27
    1326:	62 17       	cp	r22, r18
    1328:	73 07       	cpc	r23, r19
    132a:	84 07       	cpc	r24, r20
    132c:	ba 07       	cpc	r27, r26
    132e:	20 f0       	brcs	.+8      	; 0x1338 <__divsf3_pse+0xae>
    1330:	62 1b       	sub	r22, r18
    1332:	73 0b       	sbc	r23, r19
    1334:	84 0b       	sbc	r24, r20
    1336:	ba 0b       	sbc	r27, r26
    1338:	ee 1f       	adc	r30, r30
    133a:	88 f7       	brcc	.-30     	; 0x131e <__divsf3_pse+0x94>
    133c:	e0 95       	com	r30
    133e:	08 95       	ret

00001340 <__fixsfsi>:
    1340:	0e 94 a7 09 	call	0x134e	; 0x134e <__fixunssfsi>
    1344:	68 94       	set
    1346:	b1 11       	cpse	r27, r1
    1348:	0c 94 5e 0a 	jmp	0x14bc	; 0x14bc <__fp_szero>
    134c:	08 95       	ret

0000134e <__fixunssfsi>:
    134e:	0e 94 43 0a 	call	0x1486	; 0x1486 <__fp_splitA>
    1352:	88 f0       	brcs	.+34     	; 0x1376 <__fixunssfsi+0x28>
    1354:	9f 57       	subi	r25, 0x7F	; 127
    1356:	98 f0       	brcs	.+38     	; 0x137e <__fixunssfsi+0x30>
    1358:	b9 2f       	mov	r27, r25
    135a:	99 27       	eor	r25, r25
    135c:	b7 51       	subi	r27, 0x17	; 23
    135e:	b0 f0       	brcs	.+44     	; 0x138c <__fixunssfsi+0x3e>
    1360:	e1 f0       	breq	.+56     	; 0x139a <__fixunssfsi+0x4c>
    1362:	66 0f       	add	r22, r22
    1364:	77 1f       	adc	r23, r23
    1366:	88 1f       	adc	r24, r24
    1368:	99 1f       	adc	r25, r25
    136a:	1a f0       	brmi	.+6      	; 0x1372 <__fixunssfsi+0x24>
    136c:	ba 95       	dec	r27
    136e:	c9 f7       	brne	.-14     	; 0x1362 <__fixunssfsi+0x14>
    1370:	14 c0       	rjmp	.+40     	; 0x139a <__fixunssfsi+0x4c>
    1372:	b1 30       	cpi	r27, 0x01	; 1
    1374:	91 f0       	breq	.+36     	; 0x139a <__fixunssfsi+0x4c>
    1376:	0e 94 5d 0a 	call	0x14ba	; 0x14ba <__fp_zero>
    137a:	b1 e0       	ldi	r27, 0x01	; 1
    137c:	08 95       	ret
    137e:	0c 94 5d 0a 	jmp	0x14ba	; 0x14ba <__fp_zero>
    1382:	67 2f       	mov	r22, r23
    1384:	78 2f       	mov	r23, r24
    1386:	88 27       	eor	r24, r24
    1388:	b8 5f       	subi	r27, 0xF8	; 248
    138a:	39 f0       	breq	.+14     	; 0x139a <__fixunssfsi+0x4c>
    138c:	b9 3f       	cpi	r27, 0xF9	; 249
    138e:	cc f3       	brlt	.-14     	; 0x1382 <__fixunssfsi+0x34>
    1390:	86 95       	lsr	r24
    1392:	77 95       	ror	r23
    1394:	67 95       	ror	r22
    1396:	b3 95       	inc	r27
    1398:	d9 f7       	brne	.-10     	; 0x1390 <__fixunssfsi+0x42>
    139a:	3e f4       	brtc	.+14     	; 0x13aa <__fixunssfsi+0x5c>
    139c:	90 95       	com	r25
    139e:	80 95       	com	r24
    13a0:	70 95       	com	r23
    13a2:	61 95       	neg	r22
    13a4:	7f 4f       	sbci	r23, 0xFF	; 255
    13a6:	8f 4f       	sbci	r24, 0xFF	; 255
    13a8:	9f 4f       	sbci	r25, 0xFF	; 255
    13aa:	08 95       	ret

000013ac <__floatunsisf>:
    13ac:	e8 94       	clt
    13ae:	09 c0       	rjmp	.+18     	; 0x13c2 <__floatsisf+0x12>

000013b0 <__floatsisf>:
    13b0:	97 fb       	bst	r25, 7
    13b2:	3e f4       	brtc	.+14     	; 0x13c2 <__floatsisf+0x12>
    13b4:	90 95       	com	r25
    13b6:	80 95       	com	r24
    13b8:	70 95       	com	r23
    13ba:	61 95       	neg	r22
    13bc:	7f 4f       	sbci	r23, 0xFF	; 255
    13be:	8f 4f       	sbci	r24, 0xFF	; 255
    13c0:	9f 4f       	sbci	r25, 0xFF	; 255
    13c2:	99 23       	and	r25, r25
    13c4:	a9 f0       	breq	.+42     	; 0x13f0 <__floatsisf+0x40>
    13c6:	f9 2f       	mov	r31, r25
    13c8:	96 e9       	ldi	r25, 0x96	; 150
    13ca:	bb 27       	eor	r27, r27
    13cc:	93 95       	inc	r25
    13ce:	f6 95       	lsr	r31
    13d0:	87 95       	ror	r24
    13d2:	77 95       	ror	r23
    13d4:	67 95       	ror	r22
    13d6:	b7 95       	ror	r27
    13d8:	f1 11       	cpse	r31, r1
    13da:	f8 cf       	rjmp	.-16     	; 0x13cc <__floatsisf+0x1c>
    13dc:	fa f4       	brpl	.+62     	; 0x141c <__floatsisf+0x6c>
    13de:	bb 0f       	add	r27, r27
    13e0:	11 f4       	brne	.+4      	; 0x13e6 <__floatsisf+0x36>
    13e2:	60 ff       	sbrs	r22, 0
    13e4:	1b c0       	rjmp	.+54     	; 0x141c <__floatsisf+0x6c>
    13e6:	6f 5f       	subi	r22, 0xFF	; 255
    13e8:	7f 4f       	sbci	r23, 0xFF	; 255
    13ea:	8f 4f       	sbci	r24, 0xFF	; 255
    13ec:	9f 4f       	sbci	r25, 0xFF	; 255
    13ee:	16 c0       	rjmp	.+44     	; 0x141c <__floatsisf+0x6c>
    13f0:	88 23       	and	r24, r24
    13f2:	11 f0       	breq	.+4      	; 0x13f8 <__floatsisf+0x48>
    13f4:	96 e9       	ldi	r25, 0x96	; 150
    13f6:	11 c0       	rjmp	.+34     	; 0x141a <__floatsisf+0x6a>
    13f8:	77 23       	and	r23, r23
    13fa:	21 f0       	breq	.+8      	; 0x1404 <__floatsisf+0x54>
    13fc:	9e e8       	ldi	r25, 0x8E	; 142
    13fe:	87 2f       	mov	r24, r23
    1400:	76 2f       	mov	r23, r22
    1402:	05 c0       	rjmp	.+10     	; 0x140e <__floatsisf+0x5e>
    1404:	66 23       	and	r22, r22
    1406:	71 f0       	breq	.+28     	; 0x1424 <__floatsisf+0x74>
    1408:	96 e8       	ldi	r25, 0x86	; 134
    140a:	86 2f       	mov	r24, r22
    140c:	70 e0       	ldi	r23, 0x00	; 0
    140e:	60 e0       	ldi	r22, 0x00	; 0
    1410:	2a f0       	brmi	.+10     	; 0x141c <__floatsisf+0x6c>
    1412:	9a 95       	dec	r25
    1414:	66 0f       	add	r22, r22
    1416:	77 1f       	adc	r23, r23
    1418:	88 1f       	adc	r24, r24
    141a:	da f7       	brpl	.-10     	; 0x1412 <__floatsisf+0x62>
    141c:	88 0f       	add	r24, r24
    141e:	96 95       	lsr	r25
    1420:	87 95       	ror	r24
    1422:	97 f9       	bld	r25, 7
    1424:	08 95       	ret

00001426 <__fp_inf>:
    1426:	97 f9       	bld	r25, 7
    1428:	9f 67       	ori	r25, 0x7F	; 127
    142a:	80 e8       	ldi	r24, 0x80	; 128
    142c:	70 e0       	ldi	r23, 0x00	; 0
    142e:	60 e0       	ldi	r22, 0x00	; 0
    1430:	08 95       	ret

00001432 <__fp_nan>:
    1432:	9f ef       	ldi	r25, 0xFF	; 255
    1434:	80 ec       	ldi	r24, 0xC0	; 192
    1436:	08 95       	ret

00001438 <__fp_pscA>:
    1438:	00 24       	eor	r0, r0
    143a:	0a 94       	dec	r0
    143c:	16 16       	cp	r1, r22
    143e:	17 06       	cpc	r1, r23
    1440:	18 06       	cpc	r1, r24
    1442:	09 06       	cpc	r0, r25
    1444:	08 95       	ret

00001446 <__fp_pscB>:
    1446:	00 24       	eor	r0, r0
    1448:	0a 94       	dec	r0
    144a:	12 16       	cp	r1, r18
    144c:	13 06       	cpc	r1, r19
    144e:	14 06       	cpc	r1, r20
    1450:	05 06       	cpc	r0, r21
    1452:	08 95       	ret

00001454 <__fp_round>:
    1454:	09 2e       	mov	r0, r25
    1456:	03 94       	inc	r0
    1458:	00 0c       	add	r0, r0
    145a:	11 f4       	brne	.+4      	; 0x1460 <__fp_round+0xc>
    145c:	88 23       	and	r24, r24
    145e:	52 f0       	brmi	.+20     	; 0x1474 <__fp_round+0x20>
    1460:	bb 0f       	add	r27, r27
    1462:	40 f4       	brcc	.+16     	; 0x1474 <__fp_round+0x20>
    1464:	bf 2b       	or	r27, r31
    1466:	11 f4       	brne	.+4      	; 0x146c <__fp_round+0x18>
    1468:	60 ff       	sbrs	r22, 0
    146a:	04 c0       	rjmp	.+8      	; 0x1474 <__fp_round+0x20>
    146c:	6f 5f       	subi	r22, 0xFF	; 255
    146e:	7f 4f       	sbci	r23, 0xFF	; 255
    1470:	8f 4f       	sbci	r24, 0xFF	; 255
    1472:	9f 4f       	sbci	r25, 0xFF	; 255
    1474:	08 95       	ret

00001476 <__fp_split3>:
    1476:	57 fd       	sbrc	r21, 7
    1478:	90 58       	subi	r25, 0x80	; 128
    147a:	44 0f       	add	r20, r20
    147c:	55 1f       	adc	r21, r21
    147e:	59 f0       	breq	.+22     	; 0x1496 <__fp_splitA+0x10>
    1480:	5f 3f       	cpi	r21, 0xFF	; 255
    1482:	71 f0       	breq	.+28     	; 0x14a0 <__fp_splitA+0x1a>
    1484:	47 95       	ror	r20

00001486 <__fp_splitA>:
    1486:	88 0f       	add	r24, r24
    1488:	97 fb       	bst	r25, 7
    148a:	99 1f       	adc	r25, r25
    148c:	61 f0       	breq	.+24     	; 0x14a6 <__fp_splitA+0x20>
    148e:	9f 3f       	cpi	r25, 0xFF	; 255
    1490:	79 f0       	breq	.+30     	; 0x14b0 <__fp_splitA+0x2a>
    1492:	87 95       	ror	r24
    1494:	08 95       	ret
    1496:	12 16       	cp	r1, r18
    1498:	13 06       	cpc	r1, r19
    149a:	14 06       	cpc	r1, r20
    149c:	55 1f       	adc	r21, r21
    149e:	f2 cf       	rjmp	.-28     	; 0x1484 <__fp_split3+0xe>
    14a0:	46 95       	lsr	r20
    14a2:	f1 df       	rcall	.-30     	; 0x1486 <__fp_splitA>
    14a4:	08 c0       	rjmp	.+16     	; 0x14b6 <__fp_splitA+0x30>
    14a6:	16 16       	cp	r1, r22
    14a8:	17 06       	cpc	r1, r23
    14aa:	18 06       	cpc	r1, r24
    14ac:	99 1f       	adc	r25, r25
    14ae:	f1 cf       	rjmp	.-30     	; 0x1492 <__fp_splitA+0xc>
    14b0:	86 95       	lsr	r24
    14b2:	71 05       	cpc	r23, r1
    14b4:	61 05       	cpc	r22, r1
    14b6:	08 94       	sec
    14b8:	08 95       	ret

000014ba <__fp_zero>:
    14ba:	e8 94       	clt

000014bc <__fp_szero>:
    14bc:	bb 27       	eor	r27, r27
    14be:	66 27       	eor	r22, r22
    14c0:	77 27       	eor	r23, r23
    14c2:	cb 01       	movw	r24, r22
    14c4:	97 f9       	bld	r25, 7
    14c6:	08 95       	ret

000014c8 <__mulsf3>:
    14c8:	0e 94 77 0a 	call	0x14ee	; 0x14ee <__mulsf3x>
    14cc:	0c 94 2a 0a 	jmp	0x1454	; 0x1454 <__fp_round>
    14d0:	0e 94 1c 0a 	call	0x1438	; 0x1438 <__fp_pscA>
    14d4:	38 f0       	brcs	.+14     	; 0x14e4 <__mulsf3+0x1c>
    14d6:	0e 94 23 0a 	call	0x1446	; 0x1446 <__fp_pscB>
    14da:	20 f0       	brcs	.+8      	; 0x14e4 <__mulsf3+0x1c>
    14dc:	95 23       	and	r25, r21
    14de:	11 f0       	breq	.+4      	; 0x14e4 <__mulsf3+0x1c>
    14e0:	0c 94 13 0a 	jmp	0x1426	; 0x1426 <__fp_inf>
    14e4:	0c 94 19 0a 	jmp	0x1432	; 0x1432 <__fp_nan>
    14e8:	11 24       	eor	r1, r1
    14ea:	0c 94 5e 0a 	jmp	0x14bc	; 0x14bc <__fp_szero>

000014ee <__mulsf3x>:
    14ee:	0e 94 3b 0a 	call	0x1476	; 0x1476 <__fp_split3>
    14f2:	70 f3       	brcs	.-36     	; 0x14d0 <__mulsf3+0x8>

000014f4 <__mulsf3_pse>:
    14f4:	95 9f       	mul	r25, r21
    14f6:	c1 f3       	breq	.-16     	; 0x14e8 <__mulsf3+0x20>
    14f8:	95 0f       	add	r25, r21
    14fa:	50 e0       	ldi	r21, 0x00	; 0
    14fc:	55 1f       	adc	r21, r21
    14fe:	62 9f       	mul	r22, r18
    1500:	f0 01       	movw	r30, r0
    1502:	72 9f       	mul	r23, r18
    1504:	bb 27       	eor	r27, r27
    1506:	f0 0d       	add	r31, r0
    1508:	b1 1d       	adc	r27, r1
    150a:	63 9f       	mul	r22, r19
    150c:	aa 27       	eor	r26, r26
    150e:	f0 0d       	add	r31, r0
    1510:	b1 1d       	adc	r27, r1
    1512:	aa 1f       	adc	r26, r26
    1514:	64 9f       	mul	r22, r20
    1516:	66 27       	eor	r22, r22
    1518:	b0 0d       	add	r27, r0
    151a:	a1 1d       	adc	r26, r1
    151c:	66 1f       	adc	r22, r22
    151e:	82 9f       	mul	r24, r18
    1520:	22 27       	eor	r18, r18
    1522:	b0 0d       	add	r27, r0
    1524:	a1 1d       	adc	r26, r1
    1526:	62 1f       	adc	r22, r18
    1528:	73 9f       	mul	r23, r19
    152a:	b0 0d       	add	r27, r0
    152c:	a1 1d       	adc	r26, r1
    152e:	62 1f       	adc	r22, r18
    1530:	83 9f       	mul	r24, r19
    1532:	a0 0d       	add	r26, r0
    1534:	61 1d       	adc	r22, r1
    1536:	22 1f       	adc	r18, r18
    1538:	74 9f       	mul	r23, r20
    153a:	33 27       	eor	r19, r19
    153c:	a0 0d       	add	r26, r0
    153e:	61 1d       	adc	r22, r1
    1540:	23 1f       	adc	r18, r19
    1542:	84 9f       	mul	r24, r20
    1544:	60 0d       	add	r22, r0
    1546:	21 1d       	adc	r18, r1
    1548:	82 2f       	mov	r24, r18
    154a:	76 2f       	mov	r23, r22
    154c:	6a 2f       	mov	r22, r26
    154e:	11 24       	eor	r1, r1
    1550:	9f 57       	subi	r25, 0x7F	; 127
    1552:	50 40       	sbci	r21, 0x00	; 0
    1554:	9a f0       	brmi	.+38     	; 0x157c <__mulsf3_pse+0x88>
    1556:	f1 f0       	breq	.+60     	; 0x1594 <__mulsf3_pse+0xa0>
    1558:	88 23       	and	r24, r24
    155a:	4a f0       	brmi	.+18     	; 0x156e <__mulsf3_pse+0x7a>
    155c:	ee 0f       	add	r30, r30
    155e:	ff 1f       	adc	r31, r31
    1560:	bb 1f       	adc	r27, r27
    1562:	66 1f       	adc	r22, r22
    1564:	77 1f       	adc	r23, r23
    1566:	88 1f       	adc	r24, r24
    1568:	91 50       	subi	r25, 0x01	; 1
    156a:	50 40       	sbci	r21, 0x00	; 0
    156c:	a9 f7       	brne	.-22     	; 0x1558 <__mulsf3_pse+0x64>
    156e:	9e 3f       	cpi	r25, 0xFE	; 254
    1570:	51 05       	cpc	r21, r1
    1572:	80 f0       	brcs	.+32     	; 0x1594 <__mulsf3_pse+0xa0>
    1574:	0c 94 13 0a 	jmp	0x1426	; 0x1426 <__fp_inf>
    1578:	0c 94 5e 0a 	jmp	0x14bc	; 0x14bc <__fp_szero>
    157c:	5f 3f       	cpi	r21, 0xFF	; 255
    157e:	e4 f3       	brlt	.-8      	; 0x1578 <__mulsf3_pse+0x84>
    1580:	98 3e       	cpi	r25, 0xE8	; 232
    1582:	d4 f3       	brlt	.-12     	; 0x1578 <__mulsf3_pse+0x84>
    1584:	86 95       	lsr	r24
    1586:	77 95       	ror	r23
    1588:	67 95       	ror	r22
    158a:	b7 95       	ror	r27
    158c:	f7 95       	ror	r31
    158e:	e7 95       	ror	r30
    1590:	9f 5f       	subi	r25, 0xFF	; 255
    1592:	c1 f7       	brne	.-16     	; 0x1584 <__mulsf3_pse+0x90>
    1594:	fe 2b       	or	r31, r30
    1596:	88 0f       	add	r24, r24
    1598:	91 1d       	adc	r25, r1
    159a:	96 95       	lsr	r25
    159c:	87 95       	ror	r24
    159e:	97 f9       	bld	r25, 7
    15a0:	08 95       	ret

000015a2 <malloc>:
    15a2:	0f 93       	push	r16
    15a4:	1f 93       	push	r17
    15a6:	cf 93       	push	r28
    15a8:	df 93       	push	r29
    15aa:	82 30       	cpi	r24, 0x02	; 2
    15ac:	91 05       	cpc	r25, r1
    15ae:	10 f4       	brcc	.+4      	; 0x15b4 <malloc+0x12>
    15b0:	82 e0       	ldi	r24, 0x02	; 2
    15b2:	90 e0       	ldi	r25, 0x00	; 0
    15b4:	e0 91 54 20 	lds	r30, 0x2054	; 0x802054 <__flp>
    15b8:	f0 91 55 20 	lds	r31, 0x2055	; 0x802055 <__flp+0x1>
    15bc:	20 e0       	ldi	r18, 0x00	; 0
    15be:	30 e0       	ldi	r19, 0x00	; 0
    15c0:	a0 e0       	ldi	r26, 0x00	; 0
    15c2:	b0 e0       	ldi	r27, 0x00	; 0
    15c4:	30 97       	sbiw	r30, 0x00	; 0
    15c6:	19 f1       	breq	.+70     	; 0x160e <malloc+0x6c>
    15c8:	40 81       	ld	r20, Z
    15ca:	51 81       	ldd	r21, Z+1	; 0x01
    15cc:	02 81       	ldd	r16, Z+2	; 0x02
    15ce:	13 81       	ldd	r17, Z+3	; 0x03
    15d0:	48 17       	cp	r20, r24
    15d2:	59 07       	cpc	r21, r25
    15d4:	c8 f0       	brcs	.+50     	; 0x1608 <malloc+0x66>
    15d6:	84 17       	cp	r24, r20
    15d8:	95 07       	cpc	r25, r21
    15da:	69 f4       	brne	.+26     	; 0x15f6 <malloc+0x54>
    15dc:	10 97       	sbiw	r26, 0x00	; 0
    15de:	31 f0       	breq	.+12     	; 0x15ec <malloc+0x4a>
    15e0:	12 96       	adiw	r26, 0x02	; 2
    15e2:	0c 93       	st	X, r16
    15e4:	12 97       	sbiw	r26, 0x02	; 2
    15e6:	13 96       	adiw	r26, 0x03	; 3
    15e8:	1c 93       	st	X, r17
    15ea:	27 c0       	rjmp	.+78     	; 0x163a <malloc+0x98>
    15ec:	00 93 54 20 	sts	0x2054, r16	; 0x802054 <__flp>
    15f0:	10 93 55 20 	sts	0x2055, r17	; 0x802055 <__flp+0x1>
    15f4:	22 c0       	rjmp	.+68     	; 0x163a <malloc+0x98>
    15f6:	21 15       	cp	r18, r1
    15f8:	31 05       	cpc	r19, r1
    15fa:	19 f0       	breq	.+6      	; 0x1602 <malloc+0x60>
    15fc:	42 17       	cp	r20, r18
    15fe:	53 07       	cpc	r21, r19
    1600:	18 f4       	brcc	.+6      	; 0x1608 <malloc+0x66>
    1602:	9a 01       	movw	r18, r20
    1604:	bd 01       	movw	r22, r26
    1606:	ef 01       	movw	r28, r30
    1608:	df 01       	movw	r26, r30
    160a:	f8 01       	movw	r30, r16
    160c:	db cf       	rjmp	.-74     	; 0x15c4 <malloc+0x22>
    160e:	21 15       	cp	r18, r1
    1610:	31 05       	cpc	r19, r1
    1612:	f9 f0       	breq	.+62     	; 0x1652 <malloc+0xb0>
    1614:	28 1b       	sub	r18, r24
    1616:	39 0b       	sbc	r19, r25
    1618:	24 30       	cpi	r18, 0x04	; 4
    161a:	31 05       	cpc	r19, r1
    161c:	80 f4       	brcc	.+32     	; 0x163e <malloc+0x9c>
    161e:	8a 81       	ldd	r24, Y+2	; 0x02
    1620:	9b 81       	ldd	r25, Y+3	; 0x03
    1622:	61 15       	cp	r22, r1
    1624:	71 05       	cpc	r23, r1
    1626:	21 f0       	breq	.+8      	; 0x1630 <malloc+0x8e>
    1628:	fb 01       	movw	r30, r22
    162a:	82 83       	std	Z+2, r24	; 0x02
    162c:	93 83       	std	Z+3, r25	; 0x03
    162e:	04 c0       	rjmp	.+8      	; 0x1638 <malloc+0x96>
    1630:	80 93 54 20 	sts	0x2054, r24	; 0x802054 <__flp>
    1634:	90 93 55 20 	sts	0x2055, r25	; 0x802055 <__flp+0x1>
    1638:	fe 01       	movw	r30, r28
    163a:	32 96       	adiw	r30, 0x02	; 2
    163c:	44 c0       	rjmp	.+136    	; 0x16c6 <malloc+0x124>
    163e:	fe 01       	movw	r30, r28
    1640:	e2 0f       	add	r30, r18
    1642:	f3 1f       	adc	r31, r19
    1644:	81 93       	st	Z+, r24
    1646:	91 93       	st	Z+, r25
    1648:	22 50       	subi	r18, 0x02	; 2
    164a:	31 09       	sbc	r19, r1
    164c:	28 83       	st	Y, r18
    164e:	39 83       	std	Y+1, r19	; 0x01
    1650:	3a c0       	rjmp	.+116    	; 0x16c6 <malloc+0x124>
    1652:	20 91 52 20 	lds	r18, 0x2052	; 0x802052 <__brkval>
    1656:	30 91 53 20 	lds	r19, 0x2053	; 0x802053 <__brkval+0x1>
    165a:	23 2b       	or	r18, r19
    165c:	41 f4       	brne	.+16     	; 0x166e <malloc+0xcc>
    165e:	20 91 02 20 	lds	r18, 0x2002	; 0x802002 <__malloc_heap_start>
    1662:	30 91 03 20 	lds	r19, 0x2003	; 0x802003 <__malloc_heap_start+0x1>
    1666:	20 93 52 20 	sts	0x2052, r18	; 0x802052 <__brkval>
    166a:	30 93 53 20 	sts	0x2053, r19	; 0x802053 <__brkval+0x1>
    166e:	20 91 00 20 	lds	r18, 0x2000	; 0x802000 <__data_start>
    1672:	30 91 01 20 	lds	r19, 0x2001	; 0x802001 <__data_start+0x1>
    1676:	21 15       	cp	r18, r1
    1678:	31 05       	cpc	r19, r1
    167a:	41 f4       	brne	.+16     	; 0x168c <malloc+0xea>
    167c:	2d b7       	in	r18, 0x3d	; 61
    167e:	3e b7       	in	r19, 0x3e	; 62
    1680:	40 91 04 20 	lds	r20, 0x2004	; 0x802004 <__malloc_margin>
    1684:	50 91 05 20 	lds	r21, 0x2005	; 0x802005 <__malloc_margin+0x1>
    1688:	24 1b       	sub	r18, r20
    168a:	35 0b       	sbc	r19, r21
    168c:	e0 91 52 20 	lds	r30, 0x2052	; 0x802052 <__brkval>
    1690:	f0 91 53 20 	lds	r31, 0x2053	; 0x802053 <__brkval+0x1>
    1694:	e2 17       	cp	r30, r18
    1696:	f3 07       	cpc	r31, r19
    1698:	a0 f4       	brcc	.+40     	; 0x16c2 <malloc+0x120>
    169a:	2e 1b       	sub	r18, r30
    169c:	3f 0b       	sbc	r19, r31
    169e:	28 17       	cp	r18, r24
    16a0:	39 07       	cpc	r19, r25
    16a2:	78 f0       	brcs	.+30     	; 0x16c2 <malloc+0x120>
    16a4:	ac 01       	movw	r20, r24
    16a6:	4e 5f       	subi	r20, 0xFE	; 254
    16a8:	5f 4f       	sbci	r21, 0xFF	; 255
    16aa:	24 17       	cp	r18, r20
    16ac:	35 07       	cpc	r19, r21
    16ae:	48 f0       	brcs	.+18     	; 0x16c2 <malloc+0x120>
    16b0:	4e 0f       	add	r20, r30
    16b2:	5f 1f       	adc	r21, r31
    16b4:	40 93 52 20 	sts	0x2052, r20	; 0x802052 <__brkval>
    16b8:	50 93 53 20 	sts	0x2053, r21	; 0x802053 <__brkval+0x1>
    16bc:	81 93       	st	Z+, r24
    16be:	91 93       	st	Z+, r25
    16c0:	02 c0       	rjmp	.+4      	; 0x16c6 <malloc+0x124>
    16c2:	e0 e0       	ldi	r30, 0x00	; 0
    16c4:	f0 e0       	ldi	r31, 0x00	; 0
    16c6:	cf 01       	movw	r24, r30
    16c8:	df 91       	pop	r29
    16ca:	cf 91       	pop	r28
    16cc:	1f 91       	pop	r17
    16ce:	0f 91       	pop	r16
    16d0:	08 95       	ret

000016d2 <free>:
    16d2:	cf 93       	push	r28
    16d4:	df 93       	push	r29
    16d6:	00 97       	sbiw	r24, 0x00	; 0
    16d8:	09 f4       	brne	.+2      	; 0x16dc <free+0xa>
    16da:	81 c0       	rjmp	.+258    	; 0x17de <free+0x10c>
    16dc:	fc 01       	movw	r30, r24
    16de:	32 97       	sbiw	r30, 0x02	; 2
    16e0:	12 82       	std	Z+2, r1	; 0x02
    16e2:	13 82       	std	Z+3, r1	; 0x03
    16e4:	a0 91 54 20 	lds	r26, 0x2054	; 0x802054 <__flp>
    16e8:	b0 91 55 20 	lds	r27, 0x2055	; 0x802055 <__flp+0x1>
    16ec:	10 97       	sbiw	r26, 0x00	; 0
    16ee:	81 f4       	brne	.+32     	; 0x1710 <free+0x3e>
    16f0:	20 81       	ld	r18, Z
    16f2:	31 81       	ldd	r19, Z+1	; 0x01
    16f4:	82 0f       	add	r24, r18
    16f6:	93 1f       	adc	r25, r19
    16f8:	20 91 52 20 	lds	r18, 0x2052	; 0x802052 <__brkval>
    16fc:	30 91 53 20 	lds	r19, 0x2053	; 0x802053 <__brkval+0x1>
    1700:	28 17       	cp	r18, r24
    1702:	39 07       	cpc	r19, r25
    1704:	51 f5       	brne	.+84     	; 0x175a <free+0x88>
    1706:	e0 93 52 20 	sts	0x2052, r30	; 0x802052 <__brkval>
    170a:	f0 93 53 20 	sts	0x2053, r31	; 0x802053 <__brkval+0x1>
    170e:	67 c0       	rjmp	.+206    	; 0x17de <free+0x10c>
    1710:	ed 01       	movw	r28, r26
    1712:	20 e0       	ldi	r18, 0x00	; 0
    1714:	30 e0       	ldi	r19, 0x00	; 0
    1716:	ce 17       	cp	r28, r30
    1718:	df 07       	cpc	r29, r31
    171a:	40 f4       	brcc	.+16     	; 0x172c <free+0x5a>
    171c:	4a 81       	ldd	r20, Y+2	; 0x02
    171e:	5b 81       	ldd	r21, Y+3	; 0x03
    1720:	9e 01       	movw	r18, r28
    1722:	41 15       	cp	r20, r1
    1724:	51 05       	cpc	r21, r1
    1726:	f1 f0       	breq	.+60     	; 0x1764 <free+0x92>
    1728:	ea 01       	movw	r28, r20
    172a:	f5 cf       	rjmp	.-22     	; 0x1716 <free+0x44>
    172c:	c2 83       	std	Z+2, r28	; 0x02
    172e:	d3 83       	std	Z+3, r29	; 0x03
    1730:	40 81       	ld	r20, Z
    1732:	51 81       	ldd	r21, Z+1	; 0x01
    1734:	84 0f       	add	r24, r20
    1736:	95 1f       	adc	r25, r21
    1738:	c8 17       	cp	r28, r24
    173a:	d9 07       	cpc	r29, r25
    173c:	59 f4       	brne	.+22     	; 0x1754 <free+0x82>
    173e:	88 81       	ld	r24, Y
    1740:	99 81       	ldd	r25, Y+1	; 0x01
    1742:	84 0f       	add	r24, r20
    1744:	95 1f       	adc	r25, r21
    1746:	02 96       	adiw	r24, 0x02	; 2
    1748:	80 83       	st	Z, r24
    174a:	91 83       	std	Z+1, r25	; 0x01
    174c:	8a 81       	ldd	r24, Y+2	; 0x02
    174e:	9b 81       	ldd	r25, Y+3	; 0x03
    1750:	82 83       	std	Z+2, r24	; 0x02
    1752:	93 83       	std	Z+3, r25	; 0x03
    1754:	21 15       	cp	r18, r1
    1756:	31 05       	cpc	r19, r1
    1758:	29 f4       	brne	.+10     	; 0x1764 <free+0x92>
    175a:	e0 93 54 20 	sts	0x2054, r30	; 0x802054 <__flp>
    175e:	f0 93 55 20 	sts	0x2055, r31	; 0x802055 <__flp+0x1>
    1762:	3d c0       	rjmp	.+122    	; 0x17de <free+0x10c>
    1764:	e9 01       	movw	r28, r18
    1766:	ea 83       	std	Y+2, r30	; 0x02
    1768:	fb 83       	std	Y+3, r31	; 0x03
    176a:	49 91       	ld	r20, Y+
    176c:	59 91       	ld	r21, Y+
    176e:	c4 0f       	add	r28, r20
    1770:	d5 1f       	adc	r29, r21
    1772:	ec 17       	cp	r30, r28
    1774:	fd 07       	cpc	r31, r29
    1776:	61 f4       	brne	.+24     	; 0x1790 <free+0xbe>
    1778:	80 81       	ld	r24, Z
    177a:	91 81       	ldd	r25, Z+1	; 0x01
    177c:	84 0f       	add	r24, r20
    177e:	95 1f       	adc	r25, r21
    1780:	02 96       	adiw	r24, 0x02	; 2
    1782:	e9 01       	movw	r28, r18
    1784:	88 83       	st	Y, r24
    1786:	99 83       	std	Y+1, r25	; 0x01
    1788:	82 81       	ldd	r24, Z+2	; 0x02
    178a:	93 81       	ldd	r25, Z+3	; 0x03
    178c:	8a 83       	std	Y+2, r24	; 0x02
    178e:	9b 83       	std	Y+3, r25	; 0x03
    1790:	e0 e0       	ldi	r30, 0x00	; 0
    1792:	f0 e0       	ldi	r31, 0x00	; 0
    1794:	12 96       	adiw	r26, 0x02	; 2
    1796:	8d 91       	ld	r24, X+
    1798:	9c 91       	ld	r25, X
    179a:	13 97       	sbiw	r26, 0x03	; 3
    179c:	00 97       	sbiw	r24, 0x00	; 0
    179e:	19 f0       	breq	.+6      	; 0x17a6 <free+0xd4>
    17a0:	fd 01       	movw	r30, r26
    17a2:	dc 01       	movw	r26, r24
    17a4:	f7 cf       	rjmp	.-18     	; 0x1794 <free+0xc2>
    17a6:	8d 91       	ld	r24, X+
    17a8:	9c 91       	ld	r25, X
    17aa:	11 97       	sbiw	r26, 0x01	; 1
    17ac:	9d 01       	movw	r18, r26
    17ae:	2e 5f       	subi	r18, 0xFE	; 254
    17b0:	3f 4f       	sbci	r19, 0xFF	; 255
    17b2:	82 0f       	add	r24, r18
    17b4:	93 1f       	adc	r25, r19
    17b6:	20 91 52 20 	lds	r18, 0x2052	; 0x802052 <__brkval>
    17ba:	30 91 53 20 	lds	r19, 0x2053	; 0x802053 <__brkval+0x1>
    17be:	28 17       	cp	r18, r24
    17c0:	39 07       	cpc	r19, r25
    17c2:	69 f4       	brne	.+26     	; 0x17de <free+0x10c>
    17c4:	30 97       	sbiw	r30, 0x00	; 0
    17c6:	29 f4       	brne	.+10     	; 0x17d2 <free+0x100>
    17c8:	10 92 54 20 	sts	0x2054, r1	; 0x802054 <__flp>
    17cc:	10 92 55 20 	sts	0x2055, r1	; 0x802055 <__flp+0x1>
    17d0:	02 c0       	rjmp	.+4      	; 0x17d6 <free+0x104>
    17d2:	12 82       	std	Z+2, r1	; 0x02
    17d4:	13 82       	std	Z+3, r1	; 0x03
    17d6:	a0 93 52 20 	sts	0x2052, r26	; 0x802052 <__brkval>
    17da:	b0 93 53 20 	sts	0x2053, r27	; 0x802053 <__brkval+0x1>
    17de:	df 91       	pop	r29
    17e0:	cf 91       	pop	r28
    17e2:	08 95       	ret

000017e4 <sscanf_P>:
    17e4:	ae e0       	ldi	r26, 0x0E	; 14
    17e6:	b0 e0       	ldi	r27, 0x00	; 0
    17e8:	e8 ef       	ldi	r30, 0xF8	; 248
    17ea:	fb e0       	ldi	r31, 0x0B	; 11
    17ec:	0c 94 36 0f 	jmp	0x1e6c	; 0x1e6c <__prologue_saves__+0x20>
    17f0:	8d e0       	ldi	r24, 0x0D	; 13
    17f2:	8c 83       	std	Y+4, r24	; 0x04
    17f4:	8b 89       	ldd	r24, Y+19	; 0x13
    17f6:	9c 89       	ldd	r25, Y+20	; 0x14
    17f8:	89 83       	std	Y+1, r24	; 0x01
    17fa:	9a 83       	std	Y+2, r25	; 0x02
    17fc:	ae 01       	movw	r20, r28
    17fe:	49 5e       	subi	r20, 0xE9	; 233
    1800:	5f 4f       	sbci	r21, 0xFF	; 255
    1802:	6d 89       	ldd	r22, Y+21	; 0x15
    1804:	7e 89       	ldd	r23, Y+22	; 0x16
    1806:	ce 01       	movw	r24, r28
    1808:	01 96       	adiw	r24, 0x01	; 1
    180a:	0e 94 a7 0d 	call	0x1b4e	; 0x1b4e <vfscanf>
    180e:	2e 96       	adiw	r28, 0x0e	; 14
    1810:	e2 e0       	ldi	r30, 0x02	; 2
    1812:	0c 94 4f 0f 	jmp	0x1e9e	; 0x1e9e <__epilogue_restores__+0x20>

00001816 <putval>:
    1816:	20 fd       	sbrc	r18, 0
    1818:	09 c0       	rjmp	.+18     	; 0x182c <putval+0x16>
    181a:	fc 01       	movw	r30, r24
    181c:	23 fd       	sbrc	r18, 3
    181e:	05 c0       	rjmp	.+10     	; 0x182a <putval+0x14>
    1820:	22 ff       	sbrs	r18, 2
    1822:	02 c0       	rjmp	.+4      	; 0x1828 <putval+0x12>
    1824:	73 83       	std	Z+3, r23	; 0x03
    1826:	62 83       	std	Z+2, r22	; 0x02
    1828:	51 83       	std	Z+1, r21	; 0x01
    182a:	40 83       	st	Z, r20
    182c:	08 95       	ret

0000182e <mulacc>:
    182e:	44 fd       	sbrc	r20, 4
    1830:	17 c0       	rjmp	.+46     	; 0x1860 <mulacc+0x32>
    1832:	46 fd       	sbrc	r20, 6
    1834:	17 c0       	rjmp	.+46     	; 0x1864 <mulacc+0x36>
    1836:	ab 01       	movw	r20, r22
    1838:	bc 01       	movw	r22, r24
    183a:	da 01       	movw	r26, r20
    183c:	fb 01       	movw	r30, r22
    183e:	aa 0f       	add	r26, r26
    1840:	bb 1f       	adc	r27, r27
    1842:	ee 1f       	adc	r30, r30
    1844:	ff 1f       	adc	r31, r31
    1846:	10 94       	com	r1
    1848:	d1 f7       	brne	.-12     	; 0x183e <mulacc+0x10>
    184a:	4a 0f       	add	r20, r26
    184c:	5b 1f       	adc	r21, r27
    184e:	6e 1f       	adc	r22, r30
    1850:	7f 1f       	adc	r23, r31
    1852:	cb 01       	movw	r24, r22
    1854:	ba 01       	movw	r22, r20
    1856:	66 0f       	add	r22, r22
    1858:	77 1f       	adc	r23, r23
    185a:	88 1f       	adc	r24, r24
    185c:	99 1f       	adc	r25, r25
    185e:	09 c0       	rjmp	.+18     	; 0x1872 <mulacc+0x44>
    1860:	33 e0       	ldi	r19, 0x03	; 3
    1862:	01 c0       	rjmp	.+2      	; 0x1866 <mulacc+0x38>
    1864:	34 e0       	ldi	r19, 0x04	; 4
    1866:	66 0f       	add	r22, r22
    1868:	77 1f       	adc	r23, r23
    186a:	88 1f       	adc	r24, r24
    186c:	99 1f       	adc	r25, r25
    186e:	31 50       	subi	r19, 0x01	; 1
    1870:	d1 f7       	brne	.-12     	; 0x1866 <mulacc+0x38>
    1872:	62 0f       	add	r22, r18
    1874:	71 1d       	adc	r23, r1
    1876:	81 1d       	adc	r24, r1
    1878:	91 1d       	adc	r25, r1
    187a:	08 95       	ret

0000187c <skip_spaces>:
    187c:	0f 93       	push	r16
    187e:	1f 93       	push	r17
    1880:	cf 93       	push	r28
    1882:	df 93       	push	r29
    1884:	8c 01       	movw	r16, r24
    1886:	c8 01       	movw	r24, r16
    1888:	0e 94 cc 0e 	call	0x1d98	; 0x1d98 <fgetc>
    188c:	ec 01       	movw	r28, r24
    188e:	97 fd       	sbrc	r25, 7
    1890:	08 c0       	rjmp	.+16     	; 0x18a2 <skip_spaces+0x26>
    1892:	0e 94 b8 0e 	call	0x1d70	; 0x1d70 <isspace>
    1896:	89 2b       	or	r24, r25
    1898:	b1 f7       	brne	.-20     	; 0x1886 <skip_spaces+0xa>
    189a:	b8 01       	movw	r22, r16
    189c:	ce 01       	movw	r24, r28
    189e:	0e 94 0a 0f 	call	0x1e14	; 0x1e14 <ungetc>
    18a2:	ce 01       	movw	r24, r28
    18a4:	df 91       	pop	r29
    18a6:	cf 91       	pop	r28
    18a8:	1f 91       	pop	r17
    18aa:	0f 91       	pop	r16
    18ac:	08 95       	ret

000018ae <conv_int>:
    18ae:	8f 92       	push	r8
    18b0:	9f 92       	push	r9
    18b2:	af 92       	push	r10
    18b4:	bf 92       	push	r11
    18b6:	ef 92       	push	r14
    18b8:	ff 92       	push	r15
    18ba:	0f 93       	push	r16
    18bc:	1f 93       	push	r17
    18be:	cf 93       	push	r28
    18c0:	df 93       	push	r29
    18c2:	8c 01       	movw	r16, r24
    18c4:	d6 2f       	mov	r29, r22
    18c6:	7a 01       	movw	r14, r20
    18c8:	b2 2e       	mov	r11, r18
    18ca:	0e 94 cc 0e 	call	0x1d98	; 0x1d98 <fgetc>
    18ce:	9c 01       	movw	r18, r24
    18d0:	33 27       	eor	r19, r19
    18d2:	2b 32       	cpi	r18, 0x2B	; 43
    18d4:	31 05       	cpc	r19, r1
    18d6:	31 f0       	breq	.+12     	; 0x18e4 <conv_int+0x36>
    18d8:	2d 32       	cpi	r18, 0x2D	; 45
    18da:	31 05       	cpc	r19, r1
    18dc:	61 f4       	brne	.+24     	; 0x18f6 <conv_int+0x48>
    18de:	8b 2d       	mov	r24, r11
    18e0:	80 68       	ori	r24, 0x80	; 128
    18e2:	b8 2e       	mov	r11, r24
    18e4:	d1 50       	subi	r29, 0x01	; 1
    18e6:	11 f4       	brne	.+4      	; 0x18ec <conv_int+0x3e>
    18e8:	80 e0       	ldi	r24, 0x00	; 0
    18ea:	68 c0       	rjmp	.+208    	; 0x19bc <conv_int+0x10e>
    18ec:	c8 01       	movw	r24, r16
    18ee:	0e 94 cc 0e 	call	0x1d98	; 0x1d98 <fgetc>
    18f2:	97 fd       	sbrc	r25, 7
    18f4:	f9 cf       	rjmp	.-14     	; 0x18e8 <conv_int+0x3a>
    18f6:	cb 2d       	mov	r28, r11
    18f8:	cd 7f       	andi	r28, 0xFD	; 253
    18fa:	2b 2d       	mov	r18, r11
    18fc:	20 73       	andi	r18, 0x30	; 48
    18fe:	09 f5       	brne	.+66     	; 0x1942 <conv_int+0x94>
    1900:	80 33       	cpi	r24, 0x30	; 48
    1902:	f9 f4       	brne	.+62     	; 0x1942 <conv_int+0x94>
    1904:	aa 24       	eor	r10, r10
    1906:	aa 94       	dec	r10
    1908:	ad 0e       	add	r10, r29
    190a:	09 f4       	brne	.+2      	; 0x190e <conv_int+0x60>
    190c:	43 c0       	rjmp	.+134    	; 0x1994 <conv_int+0xe6>
    190e:	c8 01       	movw	r24, r16
    1910:	0e 94 cc 0e 	call	0x1d98	; 0x1d98 <fgetc>
    1914:	97 fd       	sbrc	r25, 7
    1916:	3e c0       	rjmp	.+124    	; 0x1994 <conv_int+0xe6>
    1918:	9c 01       	movw	r18, r24
    191a:	2f 7d       	andi	r18, 0xDF	; 223
    191c:	33 27       	eor	r19, r19
    191e:	28 35       	cpi	r18, 0x58	; 88
    1920:	31 05       	cpc	r19, r1
    1922:	49 f4       	brne	.+18     	; 0x1936 <conv_int+0x88>
    1924:	c2 64       	ori	r28, 0x42	; 66
    1926:	d2 50       	subi	r29, 0x02	; 2
    1928:	a9 f1       	breq	.+106    	; 0x1994 <conv_int+0xe6>
    192a:	c8 01       	movw	r24, r16
    192c:	0e 94 cc 0e 	call	0x1d98	; 0x1d98 <fgetc>
    1930:	97 ff       	sbrs	r25, 7
    1932:	07 c0       	rjmp	.+14     	; 0x1942 <conv_int+0x94>
    1934:	2f c0       	rjmp	.+94     	; 0x1994 <conv_int+0xe6>
    1936:	b6 fe       	sbrs	r11, 6
    1938:	02 c0       	rjmp	.+4      	; 0x193e <conv_int+0x90>
    193a:	c2 60       	ori	r28, 0x02	; 2
    193c:	01 c0       	rjmp	.+2      	; 0x1940 <conv_int+0x92>
    193e:	c2 61       	ori	r28, 0x12	; 18
    1940:	da 2d       	mov	r29, r10
    1942:	81 2c       	mov	r8, r1
    1944:	91 2c       	mov	r9, r1
    1946:	54 01       	movw	r10, r8
    1948:	20 ed       	ldi	r18, 0xD0	; 208
    194a:	28 0f       	add	r18, r24
    194c:	28 30       	cpi	r18, 0x08	; 8
    194e:	80 f0       	brcs	.+32     	; 0x1970 <conv_int+0xc2>
    1950:	c4 ff       	sbrs	r28, 4
    1952:	04 c0       	rjmp	.+8      	; 0x195c <conv_int+0xae>
    1954:	b8 01       	movw	r22, r16
    1956:	0e 94 0a 0f 	call	0x1e14	; 0x1e14 <ungetc>
    195a:	19 c0       	rjmp	.+50     	; 0x198e <conv_int+0xe0>
    195c:	2a 30       	cpi	r18, 0x0A	; 10
    195e:	40 f0       	brcs	.+16     	; 0x1970 <conv_int+0xc2>
    1960:	c6 ff       	sbrs	r28, 6
    1962:	f8 cf       	rjmp	.-16     	; 0x1954 <conv_int+0xa6>
    1964:	2f 7d       	andi	r18, 0xDF	; 223
    1966:	3f ee       	ldi	r19, 0xEF	; 239
    1968:	32 0f       	add	r19, r18
    196a:	36 30       	cpi	r19, 0x06	; 6
    196c:	98 f7       	brcc	.-26     	; 0x1954 <conv_int+0xa6>
    196e:	27 50       	subi	r18, 0x07	; 7
    1970:	4c 2f       	mov	r20, r28
    1972:	c5 01       	movw	r24, r10
    1974:	b4 01       	movw	r22, r8
    1976:	0e 94 17 0c 	call	0x182e	; 0x182e <mulacc>
    197a:	4b 01       	movw	r8, r22
    197c:	5c 01       	movw	r10, r24
    197e:	c2 60       	ori	r28, 0x02	; 2
    1980:	d1 50       	subi	r29, 0x01	; 1
    1982:	59 f0       	breq	.+22     	; 0x199a <conv_int+0xec>
    1984:	c8 01       	movw	r24, r16
    1986:	0e 94 cc 0e 	call	0x1d98	; 0x1d98 <fgetc>
    198a:	97 ff       	sbrs	r25, 7
    198c:	dd cf       	rjmp	.-70     	; 0x1948 <conv_int+0x9a>
    198e:	c1 fd       	sbrc	r28, 1
    1990:	04 c0       	rjmp	.+8      	; 0x199a <conv_int+0xec>
    1992:	aa cf       	rjmp	.-172    	; 0x18e8 <conv_int+0x3a>
    1994:	81 2c       	mov	r8, r1
    1996:	91 2c       	mov	r9, r1
    1998:	54 01       	movw	r10, r8
    199a:	c7 ff       	sbrs	r28, 7
    199c:	08 c0       	rjmp	.+16     	; 0x19ae <conv_int+0x100>
    199e:	b0 94       	com	r11
    19a0:	a0 94       	com	r10
    19a2:	90 94       	com	r9
    19a4:	80 94       	com	r8
    19a6:	81 1c       	adc	r8, r1
    19a8:	91 1c       	adc	r9, r1
    19aa:	a1 1c       	adc	r10, r1
    19ac:	b1 1c       	adc	r11, r1
    19ae:	2c 2f       	mov	r18, r28
    19b0:	b5 01       	movw	r22, r10
    19b2:	a4 01       	movw	r20, r8
    19b4:	c7 01       	movw	r24, r14
    19b6:	0e 94 0b 0c 	call	0x1816	; 0x1816 <putval>
    19ba:	81 e0       	ldi	r24, 0x01	; 1
    19bc:	df 91       	pop	r29
    19be:	cf 91       	pop	r28
    19c0:	1f 91       	pop	r17
    19c2:	0f 91       	pop	r16
    19c4:	ff 90       	pop	r15
    19c6:	ef 90       	pop	r14
    19c8:	bf 90       	pop	r11
    19ca:	af 90       	pop	r10
    19cc:	9f 90       	pop	r9
    19ce:	8f 90       	pop	r8
    19d0:	08 95       	ret

000019d2 <conv_brk>:
    19d2:	a0 e2       	ldi	r26, 0x20	; 32
    19d4:	b0 e0       	ldi	r27, 0x00	; 0
    19d6:	ef ee       	ldi	r30, 0xEF	; 239
    19d8:	fc e0       	ldi	r31, 0x0C	; 12
    19da:	0c 94 29 0f 	jmp	0x1e52	; 0x1e52 <__prologue_saves__+0x6>
    19de:	5c 01       	movw	r10, r24
    19e0:	96 2e       	mov	r9, r22
    19e2:	7a 01       	movw	r14, r20
    19e4:	f9 01       	movw	r30, r18
    19e6:	8e 01       	movw	r16, r28
    19e8:	0f 5f       	subi	r16, 0xFF	; 255
    19ea:	1f 4f       	sbci	r17, 0xFF	; 255
    19ec:	68 01       	movw	r12, r16
    19ee:	80 e2       	ldi	r24, 0x20	; 32
    19f0:	d8 01       	movw	r26, r16
    19f2:	1d 92       	st	X+, r1
    19f4:	8a 95       	dec	r24
    19f6:	e9 f7       	brne	.-6      	; 0x19f2 <conv_brk+0x20>
    19f8:	d5 01       	movw	r26, r10
    19fa:	13 96       	adiw	r26, 0x03	; 3
    19fc:	8c 90       	ld	r8, X
    19fe:	80 e0       	ldi	r24, 0x00	; 0
    1a00:	90 e0       	ldi	r25, 0x00	; 0
    1a02:	61 2c       	mov	r6, r1
    1a04:	71 2c       	mov	r7, r1
    1a06:	30 e0       	ldi	r19, 0x00	; 0
    1a08:	61 e0       	ldi	r22, 0x01	; 1
    1a0a:	70 e0       	ldi	r23, 0x00	; 0
    1a0c:	83 fc       	sbrc	r8, 3
    1a0e:	25 91       	lpm	r18, Z+
    1a10:	83 fe       	sbrs	r8, 3
    1a12:	21 91       	ld	r18, Z+
    1a14:	8f 01       	movw	r16, r30
    1a16:	52 2e       	mov	r5, r18
    1a18:	21 11       	cpse	r18, r1
    1a1a:	03 c0       	rjmp	.+6      	; 0x1a22 <conv_brk+0x50>
    1a1c:	80 e0       	ldi	r24, 0x00	; 0
    1a1e:	90 e0       	ldi	r25, 0x00	; 0
    1a20:	92 c0       	rjmp	.+292    	; 0x1b46 <conv_brk+0x174>
    1a22:	2e 35       	cpi	r18, 0x5E	; 94
    1a24:	11 f4       	brne	.+4      	; 0x1a2a <conv_brk+0x58>
    1a26:	00 97       	sbiw	r24, 0x00	; 0
    1a28:	51 f1       	breq	.+84     	; 0x1a7e <conv_brk+0xac>
    1a2a:	43 2f       	mov	r20, r19
    1a2c:	50 e0       	ldi	r21, 0x00	; 0
    1a2e:	48 17       	cp	r20, r24
    1a30:	59 07       	cpc	r21, r25
    1a32:	3c f4       	brge	.+14     	; 0x1a42 <conv_brk+0x70>
    1a34:	2d 35       	cpi	r18, 0x5D	; 93
    1a36:	59 f1       	breq	.+86     	; 0x1a8e <conv_brk+0xbc>
    1a38:	2d 32       	cpi	r18, 0x2D	; 45
    1a3a:	19 f4       	brne	.+6      	; 0x1a42 <conv_brk+0x70>
    1a3c:	77 20       	and	r7, r7
    1a3e:	09 f1       	breq	.+66     	; 0x1a82 <conv_brk+0xb0>
    1a40:	03 c0       	rjmp	.+6      	; 0x1a48 <conv_brk+0x76>
    1a42:	77 20       	and	r7, r7
    1a44:	09 f4       	brne	.+2      	; 0x1a48 <conv_brk+0x76>
    1a46:	6a c0       	rjmp	.+212    	; 0x1b1c <conv_brk+0x14a>
    1a48:	45 2d       	mov	r20, r5
    1a4a:	46 95       	lsr	r20
    1a4c:	46 95       	lsr	r20
    1a4e:	46 95       	lsr	r20
    1a50:	d6 01       	movw	r26, r12
    1a52:	a4 0f       	add	r26, r20
    1a54:	b1 1d       	adc	r27, r1
    1a56:	45 2d       	mov	r20, r5
    1a58:	47 70       	andi	r20, 0x07	; 7
    1a5a:	8b 01       	movw	r16, r22
    1a5c:	02 c0       	rjmp	.+4      	; 0x1a62 <conv_brk+0x90>
    1a5e:	00 0f       	add	r16, r16
    1a60:	11 1f       	adc	r17, r17
    1a62:	4a 95       	dec	r20
    1a64:	e2 f7       	brpl	.-8      	; 0x1a5e <conv_brk+0x8c>
    1a66:	a8 01       	movw	r20, r16
    1a68:	5c 91       	ld	r21, X
    1a6a:	45 2b       	or	r20, r21
    1a6c:	4c 93       	st	X, r20
    1a6e:	65 14       	cp	r6, r5
    1a70:	59 f0       	breq	.+22     	; 0x1a88 <conv_brk+0xb6>
    1a72:	56 14       	cp	r5, r6
    1a74:	10 f4       	brcc	.+4      	; 0x1a7a <conv_brk+0xa8>
    1a76:	53 94       	inc	r5
    1a78:	e7 cf       	rjmp	.-50     	; 0x1a48 <conv_brk+0x76>
    1a7a:	5a 94       	dec	r5
    1a7c:	e5 cf       	rjmp	.-54     	; 0x1a48 <conv_brk+0x76>
    1a7e:	31 e0       	ldi	r19, 0x01	; 1
    1a80:	04 c0       	rjmp	.+8      	; 0x1a8a <conv_brk+0xb8>
    1a82:	77 24       	eor	r7, r7
    1a84:	73 94       	inc	r7
    1a86:	01 c0       	rjmp	.+2      	; 0x1a8a <conv_brk+0xb8>
    1a88:	71 2c       	mov	r7, r1
    1a8a:	01 96       	adiw	r24, 0x01	; 1
    1a8c:	bf cf       	rjmp	.-130    	; 0x1a0c <conv_brk+0x3a>
    1a8e:	77 20       	and	r7, r7
    1a90:	19 f0       	breq	.+6      	; 0x1a98 <conv_brk+0xc6>
    1a92:	8e 81       	ldd	r24, Y+6	; 0x06
    1a94:	80 62       	ori	r24, 0x20	; 32
    1a96:	8e 83       	std	Y+6, r24	; 0x06
    1a98:	31 11       	cpse	r19, r1
    1a9a:	03 c0       	rjmp	.+6      	; 0x1aa2 <conv_brk+0xd0>
    1a9c:	88 24       	eor	r8, r8
    1a9e:	83 94       	inc	r8
    1aa0:	17 c0       	rjmp	.+46     	; 0x1ad0 <conv_brk+0xfe>
    1aa2:	f6 01       	movw	r30, r12
    1aa4:	9e 01       	movw	r18, r28
    1aa6:	2f 5d       	subi	r18, 0xDF	; 223
    1aa8:	3f 4f       	sbci	r19, 0xFF	; 255
    1aaa:	80 81       	ld	r24, Z
    1aac:	80 95       	com	r24
    1aae:	81 93       	st	Z+, r24
    1ab0:	2e 17       	cp	r18, r30
    1ab2:	3f 07       	cpc	r19, r31
    1ab4:	d1 f7       	brne	.-12     	; 0x1aaa <conv_brk+0xd8>
    1ab6:	f2 cf       	rjmp	.-28     	; 0x1a9c <conv_brk+0xca>
    1ab8:	e1 14       	cp	r14, r1
    1aba:	f1 04       	cpc	r15, r1
    1abc:	29 f0       	breq	.+10     	; 0x1ac8 <conv_brk+0xf6>
    1abe:	d7 01       	movw	r26, r14
    1ac0:	8c 93       	st	X, r24
    1ac2:	f7 01       	movw	r30, r14
    1ac4:	31 96       	adiw	r30, 0x01	; 1
    1ac6:	7f 01       	movw	r14, r30
    1ac8:	9a 94       	dec	r9
    1aca:	81 2c       	mov	r8, r1
    1acc:	99 20       	and	r9, r9
    1ace:	f9 f0       	breq	.+62     	; 0x1b0e <conv_brk+0x13c>
    1ad0:	c5 01       	movw	r24, r10
    1ad2:	0e 94 cc 0e 	call	0x1d98	; 0x1d98 <fgetc>
    1ad6:	97 fd       	sbrc	r25, 7
    1ad8:	18 c0       	rjmp	.+48     	; 0x1b0a <conv_brk+0x138>
    1ada:	fc 01       	movw	r30, r24
    1adc:	ff 27       	eor	r31, r31
    1ade:	23 e0       	ldi	r18, 0x03	; 3
    1ae0:	f5 95       	asr	r31
    1ae2:	e7 95       	ror	r30
    1ae4:	2a 95       	dec	r18
    1ae6:	e1 f7       	brne	.-8      	; 0x1ae0 <conv_brk+0x10e>
    1ae8:	ec 0d       	add	r30, r12
    1aea:	fd 1d       	adc	r31, r13
    1aec:	20 81       	ld	r18, Z
    1aee:	30 e0       	ldi	r19, 0x00	; 0
    1af0:	ac 01       	movw	r20, r24
    1af2:	47 70       	andi	r20, 0x07	; 7
    1af4:	55 27       	eor	r21, r21
    1af6:	02 c0       	rjmp	.+4      	; 0x1afc <conv_brk+0x12a>
    1af8:	35 95       	asr	r19
    1afa:	27 95       	ror	r18
    1afc:	4a 95       	dec	r20
    1afe:	e2 f7       	brpl	.-8      	; 0x1af8 <conv_brk+0x126>
    1b00:	20 fd       	sbrc	r18, 0
    1b02:	da cf       	rjmp	.-76     	; 0x1ab8 <conv_brk+0xe6>
    1b04:	b5 01       	movw	r22, r10
    1b06:	0e 94 0a 0f 	call	0x1e14	; 0x1e14 <ungetc>
    1b0a:	81 10       	cpse	r8, r1
    1b0c:	87 cf       	rjmp	.-242    	; 0x1a1c <conv_brk+0x4a>
    1b0e:	e1 14       	cp	r14, r1
    1b10:	f1 04       	cpc	r15, r1
    1b12:	11 f0       	breq	.+4      	; 0x1b18 <conv_brk+0x146>
    1b14:	d7 01       	movw	r26, r14
    1b16:	1c 92       	st	X, r1
    1b18:	c8 01       	movw	r24, r16
    1b1a:	15 c0       	rjmp	.+42     	; 0x1b46 <conv_brk+0x174>
    1b1c:	42 2f       	mov	r20, r18
    1b1e:	46 95       	lsr	r20
    1b20:	46 95       	lsr	r20
    1b22:	46 95       	lsr	r20
    1b24:	d6 01       	movw	r26, r12
    1b26:	a4 0f       	add	r26, r20
    1b28:	b1 1d       	adc	r27, r1
    1b2a:	42 2f       	mov	r20, r18
    1b2c:	47 70       	andi	r20, 0x07	; 7
    1b2e:	8b 01       	movw	r16, r22
    1b30:	02 c0       	rjmp	.+4      	; 0x1b36 <conv_brk+0x164>
    1b32:	00 0f       	add	r16, r16
    1b34:	11 1f       	adc	r17, r17
    1b36:	4a 95       	dec	r20
    1b38:	e2 f7       	brpl	.-8      	; 0x1b32 <conv_brk+0x160>
    1b3a:	a8 01       	movw	r20, r16
    1b3c:	5c 91       	ld	r21, X
    1b3e:	45 2b       	or	r20, r21
    1b40:	4c 93       	st	X, r20
    1b42:	62 2e       	mov	r6, r18
    1b44:	a2 cf       	rjmp	.-188    	; 0x1a8a <conv_brk+0xb8>
    1b46:	a0 96       	adiw	r28, 0x20	; 32
    1b48:	ef e0       	ldi	r30, 0x0F	; 15
    1b4a:	0c 94 42 0f 	jmp	0x1e84	; 0x1e84 <__epilogue_restores__+0x6>

00001b4e <vfscanf>:
    1b4e:	a0 e0       	ldi	r26, 0x00	; 0
    1b50:	b0 e0       	ldi	r27, 0x00	; 0
    1b52:	ed ea       	ldi	r30, 0xAD	; 173
    1b54:	fd e0       	ldi	r31, 0x0D	; 13
    1b56:	0c 94 29 0f 	jmp	0x1e52	; 0x1e52 <__prologue_saves__+0x6>
    1b5a:	6c 01       	movw	r12, r24
    1b5c:	eb 01       	movw	r28, r22
    1b5e:	5a 01       	movw	r10, r20
    1b60:	fc 01       	movw	r30, r24
    1b62:	16 82       	std	Z+6, r1	; 0x06
    1b64:	17 82       	std	Z+7, r1	; 0x07
    1b66:	51 2c       	mov	r5, r1
    1b68:	f6 01       	movw	r30, r12
    1b6a:	e3 80       	ldd	r14, Z+3	; 0x03
    1b6c:	fe 01       	movw	r30, r28
    1b6e:	e3 fc       	sbrc	r14, 3
    1b70:	85 91       	lpm	r24, Z+
    1b72:	e3 fe       	sbrs	r14, 3
    1b74:	81 91       	ld	r24, Z+
    1b76:	18 2f       	mov	r17, r24
    1b78:	ef 01       	movw	r28, r30
    1b7a:	88 23       	and	r24, r24
    1b7c:	09 f4       	brne	.+2      	; 0x1b80 <vfscanf+0x32>
    1b7e:	ee c0       	rjmp	.+476    	; 0x1d5c <vfscanf+0x20e>
    1b80:	90 e0       	ldi	r25, 0x00	; 0
    1b82:	0e 94 b8 0e 	call	0x1d70	; 0x1d70 <isspace>
    1b86:	89 2b       	or	r24, r25
    1b88:	21 f0       	breq	.+8      	; 0x1b92 <vfscanf+0x44>
    1b8a:	c6 01       	movw	r24, r12
    1b8c:	0e 94 3e 0c 	call	0x187c	; 0x187c <skip_spaces>
    1b90:	eb cf       	rjmp	.-42     	; 0x1b68 <vfscanf+0x1a>
    1b92:	15 32       	cpi	r17, 0x25	; 37
    1b94:	41 f4       	brne	.+16     	; 0x1ba6 <vfscanf+0x58>
    1b96:	fe 01       	movw	r30, r28
    1b98:	e3 fc       	sbrc	r14, 3
    1b9a:	15 91       	lpm	r17, Z+
    1b9c:	e3 fe       	sbrs	r14, 3
    1b9e:	11 91       	ld	r17, Z+
    1ba0:	ef 01       	movw	r28, r30
    1ba2:	15 32       	cpi	r17, 0x25	; 37
    1ba4:	81 f4       	brne	.+32     	; 0x1bc6 <vfscanf+0x78>
    1ba6:	c6 01       	movw	r24, r12
    1ba8:	0e 94 cc 0e 	call	0x1d98	; 0x1d98 <fgetc>
    1bac:	97 fd       	sbrc	r25, 7
    1bae:	d4 c0       	rjmp	.+424    	; 0x1d58 <vfscanf+0x20a>
    1bb0:	41 2f       	mov	r20, r17
    1bb2:	50 e0       	ldi	r21, 0x00	; 0
    1bb4:	9c 01       	movw	r18, r24
    1bb6:	33 27       	eor	r19, r19
    1bb8:	24 17       	cp	r18, r20
    1bba:	35 07       	cpc	r19, r21
    1bbc:	a9 f2       	breq	.-86     	; 0x1b68 <vfscanf+0x1a>
    1bbe:	b6 01       	movw	r22, r12
    1bc0:	0e 94 0a 0f 	call	0x1e14	; 0x1e14 <ungetc>
    1bc4:	cb c0       	rjmp	.+406    	; 0x1d5c <vfscanf+0x20e>
    1bc6:	1a 32       	cpi	r17, 0x2A	; 42
    1bc8:	39 f4       	brne	.+14     	; 0x1bd8 <vfscanf+0x8a>
    1bca:	e3 fc       	sbrc	r14, 3
    1bcc:	15 91       	lpm	r17, Z+
    1bce:	e3 fe       	sbrs	r14, 3
    1bd0:	11 91       	ld	r17, Z+
    1bd2:	ef 01       	movw	r28, r30
    1bd4:	01 e0       	ldi	r16, 0x01	; 1
    1bd6:	01 c0       	rjmp	.+2      	; 0x1bda <vfscanf+0x8c>
    1bd8:	00 e0       	ldi	r16, 0x00	; 0
    1bda:	f1 2c       	mov	r15, r1
    1bdc:	20 ed       	ldi	r18, 0xD0	; 208
    1bde:	21 0f       	add	r18, r17
    1be0:	2a 30       	cpi	r18, 0x0A	; 10
    1be2:	80 f4       	brcc	.+32     	; 0x1c04 <vfscanf+0xb6>
    1be4:	02 60       	ori	r16, 0x02	; 2
    1be6:	6f 2d       	mov	r22, r15
    1be8:	70 e0       	ldi	r23, 0x00	; 0
    1bea:	80 e0       	ldi	r24, 0x00	; 0
    1bec:	90 e0       	ldi	r25, 0x00	; 0
    1bee:	40 e2       	ldi	r20, 0x20	; 32
    1bf0:	0e 94 17 0c 	call	0x182e	; 0x182e <mulacc>
    1bf4:	f6 2e       	mov	r15, r22
    1bf6:	fe 01       	movw	r30, r28
    1bf8:	e3 fc       	sbrc	r14, 3
    1bfa:	15 91       	lpm	r17, Z+
    1bfc:	e3 fe       	sbrs	r14, 3
    1bfe:	11 91       	ld	r17, Z+
    1c00:	ef 01       	movw	r28, r30
    1c02:	ec cf       	rjmp	.-40     	; 0x1bdc <vfscanf+0x8e>
    1c04:	01 ff       	sbrs	r16, 1
    1c06:	03 c0       	rjmp	.+6      	; 0x1c0e <vfscanf+0xc0>
    1c08:	f1 10       	cpse	r15, r1
    1c0a:	03 c0       	rjmp	.+6      	; 0x1c12 <vfscanf+0xc4>
    1c0c:	a7 c0       	rjmp	.+334    	; 0x1d5c <vfscanf+0x20e>
    1c0e:	ff 24       	eor	r15, r15
    1c10:	fa 94       	dec	r15
    1c12:	18 36       	cpi	r17, 0x68	; 104
    1c14:	19 f0       	breq	.+6      	; 0x1c1c <vfscanf+0xce>
    1c16:	1c 36       	cpi	r17, 0x6C	; 108
    1c18:	51 f0       	breq	.+20     	; 0x1c2e <vfscanf+0xe0>
    1c1a:	10 c0       	rjmp	.+32     	; 0x1c3c <vfscanf+0xee>
    1c1c:	fe 01       	movw	r30, r28
    1c1e:	e3 fc       	sbrc	r14, 3
    1c20:	15 91       	lpm	r17, Z+
    1c22:	e3 fe       	sbrs	r14, 3
    1c24:	11 91       	ld	r17, Z+
    1c26:	ef 01       	movw	r28, r30
    1c28:	18 36       	cpi	r17, 0x68	; 104
    1c2a:	41 f4       	brne	.+16     	; 0x1c3c <vfscanf+0xee>
    1c2c:	08 60       	ori	r16, 0x08	; 8
    1c2e:	04 60       	ori	r16, 0x04	; 4
    1c30:	fe 01       	movw	r30, r28
    1c32:	e3 fc       	sbrc	r14, 3
    1c34:	15 91       	lpm	r17, Z+
    1c36:	e3 fe       	sbrs	r14, 3
    1c38:	11 91       	ld	r17, Z+
    1c3a:	ef 01       	movw	r28, r30
    1c3c:	11 23       	and	r17, r17
    1c3e:	09 f4       	brne	.+2      	; 0x1c42 <vfscanf+0xf4>
    1c40:	8d c0       	rjmp	.+282    	; 0x1d5c <vfscanf+0x20e>
    1c42:	61 2f       	mov	r22, r17
    1c44:	70 e0       	ldi	r23, 0x00	; 0
    1c46:	8c ef       	ldi	r24, 0xFC	; 252
    1c48:	91 e0       	ldi	r25, 0x01	; 1
    1c4a:	0e 94 c1 0e 	call	0x1d82	; 0x1d82 <strchr_P>
    1c4e:	89 2b       	or	r24, r25
    1c50:	09 f4       	brne	.+2      	; 0x1c54 <vfscanf+0x106>
    1c52:	84 c0       	rjmp	.+264    	; 0x1d5c <vfscanf+0x20e>
    1c54:	00 fd       	sbrc	r16, 0
    1c56:	07 c0       	rjmp	.+14     	; 0x1c66 <vfscanf+0x118>
    1c58:	f5 01       	movw	r30, r10
    1c5a:	80 80       	ld	r8, Z
    1c5c:	91 80       	ldd	r9, Z+1	; 0x01
    1c5e:	c5 01       	movw	r24, r10
    1c60:	02 96       	adiw	r24, 0x02	; 2
    1c62:	5c 01       	movw	r10, r24
    1c64:	02 c0       	rjmp	.+4      	; 0x1c6a <vfscanf+0x11c>
    1c66:	81 2c       	mov	r8, r1
    1c68:	91 2c       	mov	r9, r1
    1c6a:	1e 36       	cpi	r17, 0x6E	; 110
    1c6c:	51 f4       	brne	.+20     	; 0x1c82 <vfscanf+0x134>
    1c6e:	f6 01       	movw	r30, r12
    1c70:	46 81       	ldd	r20, Z+6	; 0x06
    1c72:	57 81       	ldd	r21, Z+7	; 0x07
    1c74:	60 e0       	ldi	r22, 0x00	; 0
    1c76:	70 e0       	ldi	r23, 0x00	; 0
    1c78:	20 2f       	mov	r18, r16
    1c7a:	c4 01       	movw	r24, r8
    1c7c:	0e 94 0b 0c 	call	0x1816	; 0x1816 <putval>
    1c80:	73 cf       	rjmp	.-282    	; 0x1b68 <vfscanf+0x1a>
    1c82:	13 36       	cpi	r17, 0x63	; 99
    1c84:	a9 f4       	brne	.+42     	; 0x1cb0 <vfscanf+0x162>
    1c86:	01 fd       	sbrc	r16, 1
    1c88:	02 c0       	rjmp	.+4      	; 0x1c8e <vfscanf+0x140>
    1c8a:	ff 24       	eor	r15, r15
    1c8c:	f3 94       	inc	r15
    1c8e:	c6 01       	movw	r24, r12
    1c90:	0e 94 cc 0e 	call	0x1d98	; 0x1d98 <fgetc>
    1c94:	97 fd       	sbrc	r25, 7
    1c96:	60 c0       	rjmp	.+192    	; 0x1d58 <vfscanf+0x20a>
    1c98:	81 14       	cp	r8, r1
    1c9a:	91 04       	cpc	r9, r1
    1c9c:	29 f0       	breq	.+10     	; 0x1ca8 <vfscanf+0x15a>
    1c9e:	f4 01       	movw	r30, r8
    1ca0:	80 83       	st	Z, r24
    1ca2:	c4 01       	movw	r24, r8
    1ca4:	01 96       	adiw	r24, 0x01	; 1
    1ca6:	4c 01       	movw	r8, r24
    1ca8:	fa 94       	dec	r15
    1caa:	f1 10       	cpse	r15, r1
    1cac:	f0 cf       	rjmp	.-32     	; 0x1c8e <vfscanf+0x140>
    1cae:	50 c0       	rjmp	.+160    	; 0x1d50 <vfscanf+0x202>
    1cb0:	1b 35       	cpi	r17, 0x5B	; 91
    1cb2:	59 f4       	brne	.+22     	; 0x1cca <vfscanf+0x17c>
    1cb4:	9e 01       	movw	r18, r28
    1cb6:	a4 01       	movw	r20, r8
    1cb8:	6f 2d       	mov	r22, r15
    1cba:	c6 01       	movw	r24, r12
    1cbc:	0e 94 e9 0c 	call	0x19d2	; 0x19d2 <conv_brk>
    1cc0:	ec 01       	movw	r28, r24
    1cc2:	89 2b       	or	r24, r25
    1cc4:	09 f0       	breq	.+2      	; 0x1cc8 <vfscanf+0x17a>
    1cc6:	44 c0       	rjmp	.+136    	; 0x1d50 <vfscanf+0x202>
    1cc8:	3e c0       	rjmp	.+124    	; 0x1d46 <vfscanf+0x1f8>
    1cca:	c6 01       	movw	r24, r12
    1ccc:	0e 94 3e 0c 	call	0x187c	; 0x187c <skip_spaces>
    1cd0:	97 fd       	sbrc	r25, 7
    1cd2:	42 c0       	rjmp	.+132    	; 0x1d58 <vfscanf+0x20a>
    1cd4:	1f 36       	cpi	r17, 0x6F	; 111
    1cd6:	61 f1       	breq	.+88     	; 0x1d30 <vfscanf+0x1e2>
    1cd8:	28 f4       	brcc	.+10     	; 0x1ce4 <vfscanf+0x196>
    1cda:	14 36       	cpi	r17, 0x64	; 100
    1cdc:	39 f1       	breq	.+78     	; 0x1d2c <vfscanf+0x1de>
    1cde:	19 36       	cpi	r17, 0x69	; 105
    1ce0:	51 f1       	breq	.+84     	; 0x1d36 <vfscanf+0x1e8>
    1ce2:	28 c0       	rjmp	.+80     	; 0x1d34 <vfscanf+0x1e6>
    1ce4:	13 37       	cpi	r17, 0x73	; 115
    1ce6:	71 f0       	breq	.+28     	; 0x1d04 <vfscanf+0x1b6>
    1ce8:	15 37       	cpi	r17, 0x75	; 117
    1cea:	01 f1       	breq	.+64     	; 0x1d2c <vfscanf+0x1de>
    1cec:	23 c0       	rjmp	.+70     	; 0x1d34 <vfscanf+0x1e6>
    1cee:	81 14       	cp	r8, r1
    1cf0:	91 04       	cpc	r9, r1
    1cf2:	29 f0       	breq	.+10     	; 0x1cfe <vfscanf+0x1b0>
    1cf4:	f4 01       	movw	r30, r8
    1cf6:	60 82       	st	Z, r6
    1cf8:	c4 01       	movw	r24, r8
    1cfa:	01 96       	adiw	r24, 0x01	; 1
    1cfc:	4c 01       	movw	r8, r24
    1cfe:	fa 94       	dec	r15
    1d00:	ff 20       	and	r15, r15
    1d02:	71 f0       	breq	.+28     	; 0x1d20 <vfscanf+0x1d2>
    1d04:	c6 01       	movw	r24, r12
    1d06:	0e 94 cc 0e 	call	0x1d98	; 0x1d98 <fgetc>
    1d0a:	3c 01       	movw	r6, r24
    1d0c:	97 fd       	sbrc	r25, 7
    1d0e:	08 c0       	rjmp	.+16     	; 0x1d20 <vfscanf+0x1d2>
    1d10:	0e 94 b8 0e 	call	0x1d70	; 0x1d70 <isspace>
    1d14:	89 2b       	or	r24, r25
    1d16:	59 f3       	breq	.-42     	; 0x1cee <vfscanf+0x1a0>
    1d18:	b6 01       	movw	r22, r12
    1d1a:	c3 01       	movw	r24, r6
    1d1c:	0e 94 0a 0f 	call	0x1e14	; 0x1e14 <ungetc>
    1d20:	81 14       	cp	r8, r1
    1d22:	91 04       	cpc	r9, r1
    1d24:	a9 f0       	breq	.+42     	; 0x1d50 <vfscanf+0x202>
    1d26:	f4 01       	movw	r30, r8
    1d28:	10 82       	st	Z, r1
    1d2a:	12 c0       	rjmp	.+36     	; 0x1d50 <vfscanf+0x202>
    1d2c:	00 62       	ori	r16, 0x20	; 32
    1d2e:	03 c0       	rjmp	.+6      	; 0x1d36 <vfscanf+0x1e8>
    1d30:	00 61       	ori	r16, 0x10	; 16
    1d32:	01 c0       	rjmp	.+2      	; 0x1d36 <vfscanf+0x1e8>
    1d34:	00 64       	ori	r16, 0x40	; 64
    1d36:	20 2f       	mov	r18, r16
    1d38:	a4 01       	movw	r20, r8
    1d3a:	6f 2d       	mov	r22, r15
    1d3c:	c6 01       	movw	r24, r12
    1d3e:	0e 94 57 0c 	call	0x18ae	; 0x18ae <conv_int>
    1d42:	81 11       	cpse	r24, r1
    1d44:	05 c0       	rjmp	.+10     	; 0x1d50 <vfscanf+0x202>
    1d46:	f6 01       	movw	r30, r12
    1d48:	83 81       	ldd	r24, Z+3	; 0x03
    1d4a:	80 73       	andi	r24, 0x30	; 48
    1d4c:	29 f4       	brne	.+10     	; 0x1d58 <vfscanf+0x20a>
    1d4e:	06 c0       	rjmp	.+12     	; 0x1d5c <vfscanf+0x20e>
    1d50:	00 fd       	sbrc	r16, 0
    1d52:	0a cf       	rjmp	.-492    	; 0x1b68 <vfscanf+0x1a>
    1d54:	53 94       	inc	r5
    1d56:	08 cf       	rjmp	.-496    	; 0x1b68 <vfscanf+0x1a>
    1d58:	55 20       	and	r5, r5
    1d5a:	19 f0       	breq	.+6      	; 0x1d62 <vfscanf+0x214>
    1d5c:	85 2d       	mov	r24, r5
    1d5e:	90 e0       	ldi	r25, 0x00	; 0
    1d60:	02 c0       	rjmp	.+4      	; 0x1d66 <vfscanf+0x218>
    1d62:	8f ef       	ldi	r24, 0xFF	; 255
    1d64:	9f ef       	ldi	r25, 0xFF	; 255
    1d66:	cd b7       	in	r28, 0x3d	; 61
    1d68:	de b7       	in	r29, 0x3e	; 62
    1d6a:	ef e0       	ldi	r30, 0x0F	; 15
    1d6c:	0c 94 42 0f 	jmp	0x1e84	; 0x1e84 <__epilogue_restores__+0x6>

00001d70 <isspace>:
    1d70:	91 11       	cpse	r25, r1
    1d72:	0c 94 23 0f 	jmp	0x1e46	; 0x1e46 <__ctype_isfalse>
    1d76:	80 32       	cpi	r24, 0x20	; 32
    1d78:	19 f0       	breq	.+6      	; 0x1d80 <isspace+0x10>
    1d7a:	89 50       	subi	r24, 0x09	; 9
    1d7c:	85 50       	subi	r24, 0x05	; 5
    1d7e:	c8 f7       	brcc	.-14     	; 0x1d72 <isspace+0x2>
    1d80:	08 95       	ret

00001d82 <strchr_P>:
    1d82:	fc 01       	movw	r30, r24
    1d84:	05 90       	lpm	r0, Z+
    1d86:	06 16       	cp	r0, r22
    1d88:	21 f0       	breq	.+8      	; 0x1d92 <strchr_P+0x10>
    1d8a:	00 20       	and	r0, r0
    1d8c:	d9 f7       	brne	.-10     	; 0x1d84 <strchr_P+0x2>
    1d8e:	c0 01       	movw	r24, r0
    1d90:	08 95       	ret
    1d92:	31 97       	sbiw	r30, 0x01	; 1
    1d94:	cf 01       	movw	r24, r30
    1d96:	08 95       	ret

00001d98 <fgetc>:
    1d98:	cf 93       	push	r28
    1d9a:	df 93       	push	r29
    1d9c:	ec 01       	movw	r28, r24
    1d9e:	2b 81       	ldd	r18, Y+3	; 0x03
    1da0:	20 ff       	sbrs	r18, 0
    1da2:	33 c0       	rjmp	.+102    	; 0x1e0a <fgetc+0x72>
    1da4:	26 ff       	sbrs	r18, 6
    1da6:	0a c0       	rjmp	.+20     	; 0x1dbc <fgetc+0x24>
    1da8:	2f 7b       	andi	r18, 0xBF	; 191
    1daa:	2b 83       	std	Y+3, r18	; 0x03
    1dac:	8e 81       	ldd	r24, Y+6	; 0x06
    1dae:	9f 81       	ldd	r25, Y+7	; 0x07
    1db0:	01 96       	adiw	r24, 0x01	; 1
    1db2:	8e 83       	std	Y+6, r24	; 0x06
    1db4:	9f 83       	std	Y+7, r25	; 0x07
    1db6:	8a 81       	ldd	r24, Y+2	; 0x02
    1db8:	90 e0       	ldi	r25, 0x00	; 0
    1dba:	29 c0       	rjmp	.+82     	; 0x1e0e <fgetc+0x76>
    1dbc:	22 ff       	sbrs	r18, 2
    1dbe:	0f c0       	rjmp	.+30     	; 0x1dde <fgetc+0x46>
    1dc0:	e8 81       	ld	r30, Y
    1dc2:	f9 81       	ldd	r31, Y+1	; 0x01
    1dc4:	80 81       	ld	r24, Z
    1dc6:	08 2e       	mov	r0, r24
    1dc8:	00 0c       	add	r0, r0
    1dca:	99 0b       	sbc	r25, r25
    1dcc:	00 97       	sbiw	r24, 0x00	; 0
    1dce:	19 f4       	brne	.+6      	; 0x1dd6 <fgetc+0x3e>
    1dd0:	20 62       	ori	r18, 0x20	; 32
    1dd2:	2b 83       	std	Y+3, r18	; 0x03
    1dd4:	1a c0       	rjmp	.+52     	; 0x1e0a <fgetc+0x72>
    1dd6:	31 96       	adiw	r30, 0x01	; 1
    1dd8:	e8 83       	st	Y, r30
    1dda:	f9 83       	std	Y+1, r31	; 0x01
    1ddc:	0e c0       	rjmp	.+28     	; 0x1dfa <fgetc+0x62>
    1dde:	ea 85       	ldd	r30, Y+10	; 0x0a
    1de0:	fb 85       	ldd	r31, Y+11	; 0x0b
    1de2:	09 95       	icall
    1de4:	97 ff       	sbrs	r25, 7
    1de6:	09 c0       	rjmp	.+18     	; 0x1dfa <fgetc+0x62>
    1de8:	2b 81       	ldd	r18, Y+3	; 0x03
    1dea:	01 96       	adiw	r24, 0x01	; 1
    1dec:	11 f0       	breq	.+4      	; 0x1df2 <fgetc+0x5a>
    1dee:	80 e2       	ldi	r24, 0x20	; 32
    1df0:	01 c0       	rjmp	.+2      	; 0x1df4 <fgetc+0x5c>
    1df2:	80 e1       	ldi	r24, 0x10	; 16
    1df4:	82 2b       	or	r24, r18
    1df6:	8b 83       	std	Y+3, r24	; 0x03
    1df8:	08 c0       	rjmp	.+16     	; 0x1e0a <fgetc+0x72>
    1dfa:	2e 81       	ldd	r18, Y+6	; 0x06
    1dfc:	3f 81       	ldd	r19, Y+7	; 0x07
    1dfe:	2f 5f       	subi	r18, 0xFF	; 255
    1e00:	3f 4f       	sbci	r19, 0xFF	; 255
    1e02:	2e 83       	std	Y+6, r18	; 0x06
    1e04:	3f 83       	std	Y+7, r19	; 0x07
    1e06:	99 27       	eor	r25, r25
    1e08:	02 c0       	rjmp	.+4      	; 0x1e0e <fgetc+0x76>
    1e0a:	8f ef       	ldi	r24, 0xFF	; 255
    1e0c:	9f ef       	ldi	r25, 0xFF	; 255
    1e0e:	df 91       	pop	r29
    1e10:	cf 91       	pop	r28
    1e12:	08 95       	ret

00001e14 <ungetc>:
    1e14:	fb 01       	movw	r30, r22
    1e16:	23 81       	ldd	r18, Z+3	; 0x03
    1e18:	20 ff       	sbrs	r18, 0
    1e1a:	12 c0       	rjmp	.+36     	; 0x1e40 <ungetc+0x2c>
    1e1c:	26 fd       	sbrc	r18, 6
    1e1e:	10 c0       	rjmp	.+32     	; 0x1e40 <ungetc+0x2c>
    1e20:	8f 3f       	cpi	r24, 0xFF	; 255
    1e22:	3f ef       	ldi	r19, 0xFF	; 255
    1e24:	93 07       	cpc	r25, r19
    1e26:	61 f0       	breq	.+24     	; 0x1e40 <ungetc+0x2c>
    1e28:	82 83       	std	Z+2, r24	; 0x02
    1e2a:	2f 7d       	andi	r18, 0xDF	; 223
    1e2c:	20 64       	ori	r18, 0x40	; 64
    1e2e:	23 83       	std	Z+3, r18	; 0x03
    1e30:	26 81       	ldd	r18, Z+6	; 0x06
    1e32:	37 81       	ldd	r19, Z+7	; 0x07
    1e34:	21 50       	subi	r18, 0x01	; 1
    1e36:	31 09       	sbc	r19, r1
    1e38:	26 83       	std	Z+6, r18	; 0x06
    1e3a:	37 83       	std	Z+7, r19	; 0x07
    1e3c:	99 27       	eor	r25, r25
    1e3e:	08 95       	ret
    1e40:	8f ef       	ldi	r24, 0xFF	; 255
    1e42:	9f ef       	ldi	r25, 0xFF	; 255
    1e44:	08 95       	ret

00001e46 <__ctype_isfalse>:
    1e46:	99 27       	eor	r25, r25
    1e48:	88 27       	eor	r24, r24

00001e4a <__ctype_istrue>:
    1e4a:	08 95       	ret

00001e4c <__prologue_saves__>:
    1e4c:	2f 92       	push	r2
    1e4e:	3f 92       	push	r3
    1e50:	4f 92       	push	r4
    1e52:	5f 92       	push	r5
    1e54:	6f 92       	push	r6
    1e56:	7f 92       	push	r7
    1e58:	8f 92       	push	r8
    1e5a:	9f 92       	push	r9
    1e5c:	af 92       	push	r10
    1e5e:	bf 92       	push	r11
    1e60:	cf 92       	push	r12
    1e62:	df 92       	push	r13
    1e64:	ef 92       	push	r14
    1e66:	ff 92       	push	r15
    1e68:	0f 93       	push	r16
    1e6a:	1f 93       	push	r17
    1e6c:	cf 93       	push	r28
    1e6e:	df 93       	push	r29
    1e70:	cd b7       	in	r28, 0x3d	; 61
    1e72:	de b7       	in	r29, 0x3e	; 62
    1e74:	ca 1b       	sub	r28, r26
    1e76:	db 0b       	sbc	r29, r27
    1e78:	cd bf       	out	0x3d, r28	; 61
    1e7a:	de bf       	out	0x3e, r29	; 62
    1e7c:	09 94       	ijmp

00001e7e <__epilogue_restores__>:
    1e7e:	2a 88       	ldd	r2, Y+18	; 0x12
    1e80:	39 88       	ldd	r3, Y+17	; 0x11
    1e82:	48 88       	ldd	r4, Y+16	; 0x10
    1e84:	5f 84       	ldd	r5, Y+15	; 0x0f
    1e86:	6e 84       	ldd	r6, Y+14	; 0x0e
    1e88:	7d 84       	ldd	r7, Y+13	; 0x0d
    1e8a:	8c 84       	ldd	r8, Y+12	; 0x0c
    1e8c:	9b 84       	ldd	r9, Y+11	; 0x0b
    1e8e:	aa 84       	ldd	r10, Y+10	; 0x0a
    1e90:	b9 84       	ldd	r11, Y+9	; 0x09
    1e92:	c8 84       	ldd	r12, Y+8	; 0x08
    1e94:	df 80       	ldd	r13, Y+7	; 0x07
    1e96:	ee 80       	ldd	r14, Y+6	; 0x06
    1e98:	fd 80       	ldd	r15, Y+5	; 0x05
    1e9a:	0c 81       	ldd	r16, Y+4	; 0x04
    1e9c:	1b 81       	ldd	r17, Y+3	; 0x03
    1e9e:	aa 81       	ldd	r26, Y+2	; 0x02
    1ea0:	b9 81       	ldd	r27, Y+1	; 0x01
    1ea2:	ce 0f       	add	r28, r30
    1ea4:	d1 1d       	adc	r29, r1
    1ea6:	cd bf       	out	0x3d, r28	; 61
    1ea8:	de bf       	out	0x3e, r29	; 62
    1eaa:	ed 01       	movw	r28, r26
    1eac:	08 95       	ret

00001eae <_exit>:
    1eae:	f8 94       	cli

00001eb0 <__stop_program>:
    1eb0:	ff cf       	rjmp	.-2      	; 0x1eb0 <__stop_program>
